
rtarget:     file format elf64-x86-64


Disassembly of section .init:

0000000000400bb0 <_init>:
  400bb0:	48 83 ec 08          	sub    $0x8,%rsp
  400bb4:	48 8b 05 3d 44 20 00 	mov    0x20443d(%rip),%rax        # 604ff8 <__gmon_start__>
  400bbb:	48 85 c0             	test   %rax,%rax
  400bbe:	74 02                	je     400bc2 <_init+0x12>
  400bc0:	ff d0                	callq  *%rax
  400bc2:	48 83 c4 08          	add    $0x8,%rsp
  400bc6:	c3                   	retq   

Disassembly of section .plt:

0000000000400bd0 <.plt>:
  400bd0:	ff 35 32 44 20 00    	pushq  0x204432(%rip)        # 605008 <_GLOBAL_OFFSET_TABLE_+0x8>
  400bd6:	ff 25 34 44 20 00    	jmpq   *0x204434(%rip)        # 605010 <_GLOBAL_OFFSET_TABLE_+0x10>
  400bdc:	0f 1f 40 00          	nopl   0x0(%rax)

0000000000400be0 <strcasecmp@plt>:
  400be0:	ff 25 32 44 20 00    	jmpq   *0x204432(%rip)        # 605018 <strcasecmp@GLIBC_2.2.5>
  400be6:	68 00 00 00 00       	pushq  $0x0
  400beb:	e9 e0 ff ff ff       	jmpq   400bd0 <.plt>

0000000000400bf0 <__errno_location@plt>:
  400bf0:	ff 25 2a 44 20 00    	jmpq   *0x20442a(%rip)        # 605020 <__errno_location@GLIBC_2.2.5>
  400bf6:	68 01 00 00 00       	pushq  $0x1
  400bfb:	e9 d0 ff ff ff       	jmpq   400bd0 <.plt>

0000000000400c00 <srandom@plt>:
  400c00:	ff 25 22 44 20 00    	jmpq   *0x204422(%rip)        # 605028 <srandom@GLIBC_2.2.5>
  400c06:	68 02 00 00 00       	pushq  $0x2
  400c0b:	e9 c0 ff ff ff       	jmpq   400bd0 <.plt>

0000000000400c10 <strncmp@plt>:
  400c10:	ff 25 1a 44 20 00    	jmpq   *0x20441a(%rip)        # 605030 <strncmp@GLIBC_2.2.5>
  400c16:	68 03 00 00 00       	pushq  $0x3
  400c1b:	e9 b0 ff ff ff       	jmpq   400bd0 <.plt>

0000000000400c20 <strcpy@plt>:
  400c20:	ff 25 12 44 20 00    	jmpq   *0x204412(%rip)        # 605038 <strcpy@GLIBC_2.2.5>
  400c26:	68 04 00 00 00       	pushq  $0x4
  400c2b:	e9 a0 ff ff ff       	jmpq   400bd0 <.plt>

0000000000400c30 <puts@plt>:
  400c30:	ff 25 0a 44 20 00    	jmpq   *0x20440a(%rip)        # 605040 <puts@GLIBC_2.2.5>
  400c36:	68 05 00 00 00       	pushq  $0x5
  400c3b:	e9 90 ff ff ff       	jmpq   400bd0 <.plt>

0000000000400c40 <write@plt>:
  400c40:	ff 25 02 44 20 00    	jmpq   *0x204402(%rip)        # 605048 <write@GLIBC_2.2.5>
  400c46:	68 06 00 00 00       	pushq  $0x6
  400c4b:	e9 80 ff ff ff       	jmpq   400bd0 <.plt>

0000000000400c50 <mmap@plt>:
  400c50:	ff 25 fa 43 20 00    	jmpq   *0x2043fa(%rip)        # 605050 <mmap@GLIBC_2.2.5>
  400c56:	68 07 00 00 00       	pushq  $0x7
  400c5b:	e9 70 ff ff ff       	jmpq   400bd0 <.plt>

0000000000400c60 <printf@plt>:
  400c60:	ff 25 f2 43 20 00    	jmpq   *0x2043f2(%rip)        # 605058 <printf@GLIBC_2.2.5>
  400c66:	68 08 00 00 00       	pushq  $0x8
  400c6b:	e9 60 ff ff ff       	jmpq   400bd0 <.plt>

0000000000400c70 <memset@plt>:
  400c70:	ff 25 ea 43 20 00    	jmpq   *0x2043ea(%rip)        # 605060 <memset@GLIBC_2.2.5>
  400c76:	68 09 00 00 00       	pushq  $0x9
  400c7b:	e9 50 ff ff ff       	jmpq   400bd0 <.plt>

0000000000400c80 <alarm@plt>:
  400c80:	ff 25 e2 43 20 00    	jmpq   *0x2043e2(%rip)        # 605068 <alarm@GLIBC_2.2.5>
  400c86:	68 0a 00 00 00       	pushq  $0xa
  400c8b:	e9 40 ff ff ff       	jmpq   400bd0 <.plt>

0000000000400c90 <close@plt>:
  400c90:	ff 25 da 43 20 00    	jmpq   *0x2043da(%rip)        # 605070 <close@GLIBC_2.2.5>
  400c96:	68 0b 00 00 00       	pushq  $0xb
  400c9b:	e9 30 ff ff ff       	jmpq   400bd0 <.plt>

0000000000400ca0 <read@plt>:
  400ca0:	ff 25 d2 43 20 00    	jmpq   *0x2043d2(%rip)        # 605078 <read@GLIBC_2.2.5>
  400ca6:	68 0c 00 00 00       	pushq  $0xc
  400cab:	e9 20 ff ff ff       	jmpq   400bd0 <.plt>

0000000000400cb0 <signal@plt>:
  400cb0:	ff 25 ca 43 20 00    	jmpq   *0x2043ca(%rip)        # 605080 <signal@GLIBC_2.2.5>
  400cb6:	68 0d 00 00 00       	pushq  $0xd
  400cbb:	e9 10 ff ff ff       	jmpq   400bd0 <.plt>

0000000000400cc0 <gethostbyname@plt>:
  400cc0:	ff 25 c2 43 20 00    	jmpq   *0x2043c2(%rip)        # 605088 <gethostbyname@GLIBC_2.2.5>
  400cc6:	68 0e 00 00 00       	pushq  $0xe
  400ccb:	e9 00 ff ff ff       	jmpq   400bd0 <.plt>

0000000000400cd0 <fprintf@plt>:
  400cd0:	ff 25 ba 43 20 00    	jmpq   *0x2043ba(%rip)        # 605090 <fprintf@GLIBC_2.2.5>
  400cd6:	68 0f 00 00 00       	pushq  $0xf
  400cdb:	e9 f0 fe ff ff       	jmpq   400bd0 <.plt>

0000000000400ce0 <strtol@plt>:
  400ce0:	ff 25 b2 43 20 00    	jmpq   *0x2043b2(%rip)        # 605098 <strtol@GLIBC_2.2.5>
  400ce6:	68 10 00 00 00       	pushq  $0x10
  400ceb:	e9 e0 fe ff ff       	jmpq   400bd0 <.plt>

0000000000400cf0 <memcpy@plt>:
  400cf0:	ff 25 aa 43 20 00    	jmpq   *0x2043aa(%rip)        # 6050a0 <memcpy@GLIBC_2.14>
  400cf6:	68 11 00 00 00       	pushq  $0x11
  400cfb:	e9 d0 fe ff ff       	jmpq   400bd0 <.plt>

0000000000400d00 <time@plt>:
  400d00:	ff 25 a2 43 20 00    	jmpq   *0x2043a2(%rip)        # 6050a8 <time@GLIBC_2.2.5>
  400d06:	68 12 00 00 00       	pushq  $0x12
  400d0b:	e9 c0 fe ff ff       	jmpq   400bd0 <.plt>

0000000000400d10 <random@plt>:
  400d10:	ff 25 9a 43 20 00    	jmpq   *0x20439a(%rip)        # 6050b0 <random@GLIBC_2.2.5>
  400d16:	68 13 00 00 00       	pushq  $0x13
  400d1b:	e9 b0 fe ff ff       	jmpq   400bd0 <.plt>

0000000000400d20 <_IO_getc@plt>:
  400d20:	ff 25 92 43 20 00    	jmpq   *0x204392(%rip)        # 6050b8 <_IO_getc@GLIBC_2.2.5>
  400d26:	68 14 00 00 00       	pushq  $0x14
  400d2b:	e9 a0 fe ff ff       	jmpq   400bd0 <.plt>

0000000000400d30 <__isoc99_sscanf@plt>:
  400d30:	ff 25 8a 43 20 00    	jmpq   *0x20438a(%rip)        # 6050c0 <__isoc99_sscanf@GLIBC_2.7>
  400d36:	68 15 00 00 00       	pushq  $0x15
  400d3b:	e9 90 fe ff ff       	jmpq   400bd0 <.plt>

0000000000400d40 <munmap@plt>:
  400d40:	ff 25 82 43 20 00    	jmpq   *0x204382(%rip)        # 6050c8 <munmap@GLIBC_2.2.5>
  400d46:	68 16 00 00 00       	pushq  $0x16
  400d4b:	e9 80 fe ff ff       	jmpq   400bd0 <.plt>

0000000000400d50 <bcopy@plt>:
  400d50:	ff 25 7a 43 20 00    	jmpq   *0x20437a(%rip)        # 6050d0 <bcopy@GLIBC_2.2.5>
  400d56:	68 17 00 00 00       	pushq  $0x17
  400d5b:	e9 70 fe ff ff       	jmpq   400bd0 <.plt>

0000000000400d60 <fopen@plt>:
  400d60:	ff 25 72 43 20 00    	jmpq   *0x204372(%rip)        # 6050d8 <fopen@GLIBC_2.2.5>
  400d66:	68 18 00 00 00       	pushq  $0x18
  400d6b:	e9 60 fe ff ff       	jmpq   400bd0 <.plt>

0000000000400d70 <getopt@plt>:
  400d70:	ff 25 6a 43 20 00    	jmpq   *0x20436a(%rip)        # 6050e0 <getopt@GLIBC_2.2.5>
  400d76:	68 19 00 00 00       	pushq  $0x19
  400d7b:	e9 50 fe ff ff       	jmpq   400bd0 <.plt>

0000000000400d80 <strtoul@plt>:
  400d80:	ff 25 62 43 20 00    	jmpq   *0x204362(%rip)        # 6050e8 <strtoul@GLIBC_2.2.5>
  400d86:	68 1a 00 00 00       	pushq  $0x1a
  400d8b:	e9 40 fe ff ff       	jmpq   400bd0 <.plt>

0000000000400d90 <gethostname@plt>:
  400d90:	ff 25 5a 43 20 00    	jmpq   *0x20435a(%rip)        # 6050f0 <gethostname@GLIBC_2.2.5>
  400d96:	68 1b 00 00 00       	pushq  $0x1b
  400d9b:	e9 30 fe ff ff       	jmpq   400bd0 <.plt>

0000000000400da0 <sprintf@plt>:
  400da0:	ff 25 52 43 20 00    	jmpq   *0x204352(%rip)        # 6050f8 <sprintf@GLIBC_2.2.5>
  400da6:	68 1c 00 00 00       	pushq  $0x1c
  400dab:	e9 20 fe ff ff       	jmpq   400bd0 <.plt>

0000000000400db0 <exit@plt>:
  400db0:	ff 25 4a 43 20 00    	jmpq   *0x20434a(%rip)        # 605100 <exit@GLIBC_2.2.5>
  400db6:	68 1d 00 00 00       	pushq  $0x1d
  400dbb:	e9 10 fe ff ff       	jmpq   400bd0 <.plt>

0000000000400dc0 <connect@plt>:
  400dc0:	ff 25 42 43 20 00    	jmpq   *0x204342(%rip)        # 605108 <connect@GLIBC_2.2.5>
  400dc6:	68 1e 00 00 00       	pushq  $0x1e
  400dcb:	e9 00 fe ff ff       	jmpq   400bd0 <.plt>

0000000000400dd0 <socket@plt>:
  400dd0:	ff 25 3a 43 20 00    	jmpq   *0x20433a(%rip)        # 605110 <socket@GLIBC_2.2.5>
  400dd6:	68 1f 00 00 00       	pushq  $0x1f
  400ddb:	e9 f0 fd ff ff       	jmpq   400bd0 <.plt>

Disassembly of section .text:

0000000000400de0 <_start>:
  400de0:	31 ed                	xor    %ebp,%ebp
  400de2:	49 89 d1             	mov    %rdx,%r9
  400de5:	5e                   	pop    %rsi
  400de6:	48 89 e2             	mov    %rsp,%rdx
  400de9:	48 83 e4 f0          	and    $0xfffffffffffffff0,%rsp
  400ded:	50                   	push   %rax
  400dee:	54                   	push   %rsp
  400def:	49 c7 c0 00 2c 40 00 	mov    $0x402c00,%r8
  400df6:	48 c7 c1 a0 2b 40 00 	mov    $0x402ba0,%rcx
  400dfd:	48 c7 c7 70 10 40 00 	mov    $0x401070,%rdi
  400e04:	ff 15 e6 41 20 00    	callq  *0x2041e6(%rip)        # 604ff0 <__libc_start_main@GLIBC_2.2.5>
  400e0a:	f4                   	hlt    
  400e0b:	0f 1f 44 00 00       	nopl   0x0(%rax,%rax,1)

0000000000400e10 <deregister_tm_clones>:
  400e10:	55                   	push   %rbp
  400e11:	b8 70 59 60 00       	mov    $0x605970,%eax
  400e16:	48 3d 70 59 60 00    	cmp    $0x605970,%rax
  400e1c:	48 89 e5             	mov    %rsp,%rbp
  400e1f:	74 12                	je     400e33 <deregister_tm_clones+0x23>
  400e21:	b8 00 00 00 00       	mov    $0x0,%eax
  400e26:	48 85 c0             	test   %rax,%rax
  400e29:	74 08                	je     400e33 <deregister_tm_clones+0x23>
  400e2b:	5d                   	pop    %rbp
  400e2c:	bf 70 59 60 00       	mov    $0x605970,%edi
  400e31:	ff e0                	jmpq   *%rax
  400e33:	5d                   	pop    %rbp
  400e34:	c3                   	retq   
  400e35:	90                   	nop
  400e36:	66 2e 0f 1f 84 00 00 	nopw   %cs:0x0(%rax,%rax,1)
  400e3d:	00 00 00 

0000000000400e40 <register_tm_clones>:
  400e40:	be 70 59 60 00       	mov    $0x605970,%esi
  400e45:	55                   	push   %rbp
  400e46:	48 81 ee 70 59 60 00 	sub    $0x605970,%rsi
  400e4d:	48 89 e5             	mov    %rsp,%rbp
  400e50:	48 c1 fe 03          	sar    $0x3,%rsi
  400e54:	48 89 f0             	mov    %rsi,%rax
  400e57:	48 c1 e8 3f          	shr    $0x3f,%rax
  400e5b:	48 01 c6             	add    %rax,%rsi
  400e5e:	48 d1 fe             	sar    %rsi
  400e61:	74 12                	je     400e75 <register_tm_clones+0x35>
  400e63:	b8 00 00 00 00       	mov    $0x0,%eax
  400e68:	48 85 c0             	test   %rax,%rax
  400e6b:	74 08                	je     400e75 <register_tm_clones+0x35>
  400e6d:	5d                   	pop    %rbp
  400e6e:	bf 70 59 60 00       	mov    $0x605970,%edi
  400e73:	ff e0                	jmpq   *%rax
  400e75:	5d                   	pop    %rbp
  400e76:	c3                   	retq   
  400e77:	66 0f 1f 84 00 00 00 	nopw   0x0(%rax,%rax,1)
  400e7e:	00 00 

0000000000400e80 <__do_global_dtors_aux>:
  400e80:	80 3d 21 4b 20 00 00 	cmpb   $0x0,0x204b21(%rip)        # 6059a8 <completed.6984>
  400e87:	75 12                	jne    400e9b <__do_global_dtors_aux+0x1b>
  400e89:	55                   	push   %rbp
  400e8a:	48 89 e5             	mov    %rsp,%rbp
  400e8d:	e8 7e ff ff ff       	callq  400e10 <deregister_tm_clones>
  400e92:	c6 05 0f 4b 20 00 01 	movb   $0x1,0x204b0f(%rip)        # 6059a8 <completed.6984>
  400e99:	5d                   	pop    %rbp
  400e9a:	c3                   	retq   
  400e9b:	f3 c3                	repz retq 
  400e9d:	0f 1f 00             	nopl   (%rax)

0000000000400ea0 <frame_dummy>:
  400ea0:	55                   	push   %rbp
  400ea1:	48 89 e5             	mov    %rsp,%rbp
  400ea4:	5d                   	pop    %rbp
  400ea5:	eb 99                	jmp    400e40 <register_tm_clones>

0000000000400ea7 <usage>:
  400ea7:	48 83 ec 08          	sub    $0x8,%rsp
  400eab:	48 89 fe             	mov    %rdi,%rsi
  400eae:	83 3d 33 4b 20 00 00 	cmpl   $0x0,0x204b33(%rip)        # 6059e8 <is_checker>
  400eb5:	74 41                	je     400ef8 <usage+0x51>
  400eb7:	bf 20 2c 40 00       	mov    $0x402c20,%edi
  400ebc:	b8 00 00 00 00       	mov    $0x0,%eax
  400ec1:	e8 9a fd ff ff       	callq  400c60 <printf@plt>
  400ec6:	bf 58 2c 40 00       	mov    $0x402c58,%edi
  400ecb:	e8 60 fd ff ff       	callq  400c30 <puts@plt>
  400ed0:	bf d0 2d 40 00       	mov    $0x402dd0,%edi
  400ed5:	e8 56 fd ff ff       	callq  400c30 <puts@plt>
  400eda:	bf 80 2c 40 00       	mov    $0x402c80,%edi
  400edf:	e8 4c fd ff ff       	callq  400c30 <puts@plt>
  400ee4:	bf ea 2d 40 00       	mov    $0x402dea,%edi
  400ee9:	e8 42 fd ff ff       	callq  400c30 <puts@plt>
  400eee:	bf 00 00 00 00       	mov    $0x0,%edi
  400ef3:	e8 b8 fe ff ff       	callq  400db0 <exit@plt>
  400ef8:	bf 06 2e 40 00       	mov    $0x402e06,%edi
  400efd:	b8 00 00 00 00       	mov    $0x0,%eax
  400f02:	e8 59 fd ff ff       	callq  400c60 <printf@plt>
  400f07:	bf a8 2c 40 00       	mov    $0x402ca8,%edi
  400f0c:	e8 1f fd ff ff       	callq  400c30 <puts@plt>
  400f11:	bf d0 2c 40 00       	mov    $0x402cd0,%edi
  400f16:	e8 15 fd ff ff       	callq  400c30 <puts@plt>
  400f1b:	bf 24 2e 40 00       	mov    $0x402e24,%edi
  400f20:	e8 0b fd ff ff       	callq  400c30 <puts@plt>
  400f25:	eb c7                	jmp    400eee <usage+0x47>

0000000000400f27 <initialize_target>:
  400f27:	55                   	push   %rbp
  400f28:	53                   	push   %rbx
  400f29:	48 81 ec 08 21 00 00 	sub    $0x2108,%rsp
  400f30:	89 f5                	mov    %esi,%ebp
  400f32:	89 3d a0 4a 20 00    	mov    %edi,0x204aa0(%rip)        # 6059d8 <check_level>
  400f38:	8b 3d 0a 42 20 00    	mov    0x20420a(%rip),%edi        # 605148 <target_id>
  400f3e:	e8 36 1c 00 00       	callq  402b79 <gencookie>
  400f43:	89 05 9b 4a 20 00    	mov    %eax,0x204a9b(%rip)        # 6059e4 <cookie>
  400f49:	89 c7                	mov    %eax,%edi
  400f4b:	e8 29 1c 00 00       	callq  402b79 <gencookie>
  400f50:	89 05 8a 4a 20 00    	mov    %eax,0x204a8a(%rip)        # 6059e0 <authkey>
  400f56:	8b 05 ec 41 20 00    	mov    0x2041ec(%rip),%eax        # 605148 <target_id>
  400f5c:	8d 78 01             	lea    0x1(%rax),%edi
  400f5f:	e8 9c fc ff ff       	callq  400c00 <srandom@plt>
  400f64:	e8 a7 fd ff ff       	callq  400d10 <random@plt>
  400f69:	89 c7                	mov    %eax,%edi
  400f6b:	e8 b8 02 00 00       	callq  401228 <scramble>
  400f70:	89 c3                	mov    %eax,%ebx
  400f72:	85 ed                	test   %ebp,%ebp
  400f74:	75 3d                	jne    400fb3 <initialize_target+0x8c>
  400f76:	b8 00 00 00 00       	mov    $0x0,%eax
  400f7b:	01 d8                	add    %ebx,%eax
  400f7d:	0f b7 c0             	movzwl %ax,%eax
  400f80:	8d 04 c5 00 01 00 00 	lea    0x100(,%rax,8),%eax
  400f87:	89 c0                	mov    %eax,%eax
  400f89:	48 89 05 d0 49 20 00 	mov    %rax,0x2049d0(%rip)        # 605960 <buf_offset>
  400f90:	c6 05 71 56 20 00 72 	movb   $0x72,0x205671(%rip)        # 606608 <target_prefix>
  400f97:	83 3d ca 49 20 00 00 	cmpl   $0x0,0x2049ca(%rip)        # 605968 <notify>
  400f9e:	74 09                	je     400fa9 <initialize_target+0x82>
  400fa0:	83 3d 41 4a 20 00 00 	cmpl   $0x0,0x204a41(%rip)        # 6059e8 <is_checker>
  400fa7:	74 22                	je     400fcb <initialize_target+0xa4>
  400fa9:	48 81 c4 08 21 00 00 	add    $0x2108,%rsp
  400fb0:	5b                   	pop    %rbx
  400fb1:	5d                   	pop    %rbp
  400fb2:	c3                   	retq   
  400fb3:	bf 00 00 00 00       	mov    $0x0,%edi
  400fb8:	e8 43 fd ff ff       	callq  400d00 <time@plt>
  400fbd:	89 c7                	mov    %eax,%edi
  400fbf:	e8 3c fc ff ff       	callq  400c00 <srandom@plt>
  400fc4:	e8 47 fd ff ff       	callq  400d10 <random@plt>
  400fc9:	eb b0                	jmp    400f7b <initialize_target+0x54>
  400fcb:	be 00 01 00 00       	mov    $0x100,%esi
  400fd0:	48 89 e7             	mov    %rsp,%rdi
  400fd3:	e8 b8 fd ff ff       	callq  400d90 <gethostname@plt>
  400fd8:	89 c5                	mov    %eax,%ebp
  400fda:	85 c0                	test   %eax,%eax
  400fdc:	75 23                	jne    401001 <initialize_target+0xda>
  400fde:	89 c3                	mov    %eax,%ebx
  400fe0:	48 63 c3             	movslq %ebx,%rax
  400fe3:	48 8b 3c c5 60 51 60 	mov    0x605160(,%rax,8),%rdi
  400fea:	00 
  400feb:	48 85 ff             	test   %rdi,%rdi
  400fee:	74 2a                	je     40101a <initialize_target+0xf3>
  400ff0:	48 89 e6             	mov    %rsp,%rsi
  400ff3:	e8 e8 fb ff ff       	callq  400be0 <strcasecmp@plt>
  400ff8:	85 c0                	test   %eax,%eax
  400ffa:	74 19                	je     401015 <initialize_target+0xee>
  400ffc:	83 c3 01             	add    $0x1,%ebx
  400fff:	eb df                	jmp    400fe0 <initialize_target+0xb9>
  401001:	bf 00 2d 40 00       	mov    $0x402d00,%edi
  401006:	e8 25 fc ff ff       	callq  400c30 <puts@plt>
  40100b:	bf 08 00 00 00       	mov    $0x8,%edi
  401010:	e8 9b fd ff ff       	callq  400db0 <exit@plt>
  401015:	bd 01 00 00 00       	mov    $0x1,%ebp
  40101a:	85 ed                	test   %ebp,%ebp
  40101c:	74 36                	je     401054 <initialize_target+0x12d>
  40101e:	48 8d bc 24 00 01 00 	lea    0x100(%rsp),%rdi
  401025:	00 
  401026:	e8 e1 18 00 00       	callq  40290c <init_driver>
  40102b:	85 c0                	test   %eax,%eax
  40102d:	0f 89 76 ff ff ff    	jns    400fa9 <initialize_target+0x82>
  401033:	48 8d b4 24 00 01 00 	lea    0x100(%rsp),%rsi
  40103a:	00 
  40103b:	bf 78 2d 40 00       	mov    $0x402d78,%edi
  401040:	b8 00 00 00 00       	mov    $0x0,%eax
  401045:	e8 16 fc ff ff       	callq  400c60 <printf@plt>
  40104a:	bf 08 00 00 00       	mov    $0x8,%edi
  40104f:	e8 5c fd ff ff       	callq  400db0 <exit@plt>
  401054:	48 89 e6             	mov    %rsp,%rsi
  401057:	bf 38 2d 40 00       	mov    $0x402d38,%edi
  40105c:	b8 00 00 00 00       	mov    $0x0,%eax
  401061:	e8 fa fb ff ff       	callq  400c60 <printf@plt>
  401066:	bf 08 00 00 00       	mov    $0x8,%edi
  40106b:	e8 40 fd ff ff       	callq  400db0 <exit@plt>

0000000000401070 <main>:
  401070:	41 56                	push   %r14
  401072:	41 55                	push   %r13
  401074:	41 54                	push   %r12
  401076:	55                   	push   %rbp
  401077:	53                   	push   %rbx
  401078:	41 89 fc             	mov    %edi,%r12d
  40107b:	48 89 f3             	mov    %rsi,%rbx
  40107e:	be 14 1d 40 00       	mov    $0x401d14,%esi
  401083:	bf 0b 00 00 00       	mov    $0xb,%edi
  401088:	e8 23 fc ff ff       	callq  400cb0 <signal@plt>
  40108d:	be c6 1c 40 00       	mov    $0x401cc6,%esi
  401092:	bf 07 00 00 00       	mov    $0x7,%edi
  401097:	e8 14 fc ff ff       	callq  400cb0 <signal@plt>
  40109c:	be 62 1d 40 00       	mov    $0x401d62,%esi
  4010a1:	bf 04 00 00 00       	mov    $0x4,%edi
  4010a6:	e8 05 fc ff ff       	callq  400cb0 <signal@plt>
  4010ab:	83 3d 36 49 20 00 00 	cmpl   $0x0,0x204936(%rip)        # 6059e8 <is_checker>
  4010b2:	75 24                	jne    4010d8 <main+0x68>
  4010b4:	bd 3d 2e 40 00       	mov    $0x402e3d,%ebp
  4010b9:	48 8b 05 c0 48 20 00 	mov    0x2048c0(%rip),%rax        # 605980 <stdin@@GLIBC_2.2.5>
  4010c0:	48 89 05 09 49 20 00 	mov    %rax,0x204909(%rip)        # 6059d0 <infile>
  4010c7:	41 bd 00 00 00 00    	mov    $0x0,%r13d
  4010cd:	41 be 00 00 00 00    	mov    $0x0,%r14d
  4010d3:	e9 80 00 00 00       	jmpq   401158 <main+0xe8>
  4010d8:	be b0 1d 40 00       	mov    $0x401db0,%esi
  4010dd:	bf 0e 00 00 00       	mov    $0xe,%edi
  4010e2:	e8 c9 fb ff ff       	callq  400cb0 <signal@plt>
  4010e7:	bf 05 00 00 00       	mov    $0x5,%edi
  4010ec:	e8 8f fb ff ff       	callq  400c80 <alarm@plt>
  4010f1:	bd 42 2e 40 00       	mov    $0x402e42,%ebp
  4010f6:	eb c1                	jmp    4010b9 <main+0x49>
  4010f8:	48 8b 3b             	mov    (%rbx),%rdi
  4010fb:	e8 a7 fd ff ff       	callq  400ea7 <usage>
  401100:	be 1f 35 40 00       	mov    $0x40351f,%esi
  401105:	48 8b 3d 84 48 20 00 	mov    0x204884(%rip),%rdi        # 605990 <optarg@@GLIBC_2.2.5>
  40110c:	e8 4f fc ff ff       	callq  400d60 <fopen@plt>
  401111:	48 89 05 b8 48 20 00 	mov    %rax,0x2048b8(%rip)        # 6059d0 <infile>
  401118:	48 85 c0             	test   %rax,%rax
  40111b:	75 3b                	jne    401158 <main+0xe8>
  40111d:	48 8b 15 6c 48 20 00 	mov    0x20486c(%rip),%rdx        # 605990 <optarg@@GLIBC_2.2.5>
  401124:	be 4a 2e 40 00       	mov    $0x402e4a,%esi
  401129:	48 8b 3d 70 48 20 00 	mov    0x204870(%rip),%rdi        # 6059a0 <stderr@@GLIBC_2.2.5>
  401130:	e8 9b fb ff ff       	callq  400cd0 <fprintf@plt>
  401135:	b8 01 00 00 00       	mov    $0x1,%eax
  40113a:	e9 c2 00 00 00       	jmpq   401201 <main+0x191>
  40113f:	ba 10 00 00 00       	mov    $0x10,%edx
  401144:	be 00 00 00 00       	mov    $0x0,%esi
  401149:	48 8b 3d 40 48 20 00 	mov    0x204840(%rip),%rdi        # 605990 <optarg@@GLIBC_2.2.5>
  401150:	e8 2b fc ff ff       	callq  400d80 <strtoul@plt>
  401155:	41 89 c6             	mov    %eax,%r14d
  401158:	48 89 ea             	mov    %rbp,%rdx
  40115b:	48 89 de             	mov    %rbx,%rsi
  40115e:	44 89 e7             	mov    %r12d,%edi
  401161:	e8 0a fc ff ff       	callq  400d70 <getopt@plt>
  401166:	3c ff                	cmp    $0xff,%al
  401168:	74 52                	je     4011bc <main+0x14c>
  40116a:	0f be f0             	movsbl %al,%esi
  40116d:	83 e8 61             	sub    $0x61,%eax
  401170:	3c 10                	cmp    $0x10,%al
  401172:	77 31                	ja     4011a5 <main+0x135>
  401174:	0f b6 c0             	movzbl %al,%eax
  401177:	ff 24 c5 88 2e 40 00 	jmpq   *0x402e88(,%rax,8)
  40117e:	ba 0a 00 00 00       	mov    $0xa,%edx
  401183:	be 00 00 00 00       	mov    $0x0,%esi
  401188:	48 8b 3d 01 48 20 00 	mov    0x204801(%rip),%rdi        # 605990 <optarg@@GLIBC_2.2.5>
  40118f:	e8 4c fb ff ff       	callq  400ce0 <strtol@plt>
  401194:	41 89 c5             	mov    %eax,%r13d
  401197:	eb bf                	jmp    401158 <main+0xe8>
  401199:	c7 05 c5 47 20 00 00 	movl   $0x0,0x2047c5(%rip)        # 605968 <notify>
  4011a0:	00 00 00 
  4011a3:	eb b3                	jmp    401158 <main+0xe8>
  4011a5:	bf 67 2e 40 00       	mov    $0x402e67,%edi
  4011aa:	b8 00 00 00 00       	mov    $0x0,%eax
  4011af:	e8 ac fa ff ff       	callq  400c60 <printf@plt>
  4011b4:	48 8b 3b             	mov    (%rbx),%rdi
  4011b7:	e8 eb fc ff ff       	callq  400ea7 <usage>
  4011bc:	be 01 00 00 00       	mov    $0x1,%esi
  4011c1:	44 89 ef             	mov    %r13d,%edi
  4011c4:	e8 5e fd ff ff       	callq  400f27 <initialize_target>
  4011c9:	83 3d 18 48 20 00 00 	cmpl   $0x0,0x204818(%rip)        # 6059e8 <is_checker>
  4011d0:	74 09                	je     4011db <main+0x16b>
  4011d2:	44 39 35 07 48 20 00 	cmp    %r14d,0x204807(%rip)        # 6059e0 <authkey>
  4011d9:	75 2f                	jne    40120a <main+0x19a>
  4011db:	8b 35 03 48 20 00    	mov    0x204803(%rip),%esi        # 6059e4 <cookie>
  4011e1:	bf 7a 2e 40 00       	mov    $0x402e7a,%edi
  4011e6:	b8 00 00 00 00       	mov    $0x0,%eax
  4011eb:	e8 70 fa ff ff       	callq  400c60 <printf@plt>
  4011f0:	48 8b 3d 69 47 20 00 	mov    0x204769(%rip),%rdi        # 605960 <buf_offset>
  4011f7:	e8 02 0c 00 00       	callq  401dfe <launch>
  4011fc:	b8 00 00 00 00       	mov    $0x0,%eax
  401201:	5b                   	pop    %rbx
  401202:	5d                   	pop    %rbp
  401203:	41 5c                	pop    %r12
  401205:	41 5d                	pop    %r13
  401207:	41 5e                	pop    %r14
  401209:	c3                   	retq   
  40120a:	44 89 f6             	mov    %r14d,%esi
  40120d:	bf a0 2d 40 00       	mov    $0x402da0,%edi
  401212:	b8 00 00 00 00       	mov    $0x0,%eax
  401217:	e8 44 fa ff ff       	callq  400c60 <printf@plt>
  40121c:	b8 00 00 00 00       	mov    $0x0,%eax
  401221:	e8 9c 07 00 00       	callq  4019c2 <check_fail>
  401226:	eb b3                	jmp    4011db <main+0x16b>

0000000000401228 <scramble>:
  401228:	b8 00 00 00 00       	mov    $0x0,%eax
  40122d:	eb 11                	jmp    401240 <scramble+0x18>
  40122f:	69 d0 30 e2 00 00    	imul   $0xe230,%eax,%edx
  401235:	01 fa                	add    %edi,%edx
  401237:	89 c1                	mov    %eax,%ecx
  401239:	89 54 8c d0          	mov    %edx,-0x30(%rsp,%rcx,4)
  40123d:	83 c0 01             	add    $0x1,%eax
  401240:	83 f8 09             	cmp    $0x9,%eax
  401243:	76 ea                	jbe    40122f <scramble+0x7>
  401245:	8b 44 24 e4          	mov    -0x1c(%rsp),%eax
  401249:	69 c0 e8 30 00 00    	imul   $0x30e8,%eax,%eax
  40124f:	89 44 24 e4          	mov    %eax,-0x1c(%rsp)
  401253:	8b 44 24 d8          	mov    -0x28(%rsp),%eax
  401257:	69 c0 45 8f 00 00    	imul   $0x8f45,%eax,%eax
  40125d:	89 44 24 d8          	mov    %eax,-0x28(%rsp)
  401261:	8b 44 24 ec          	mov    -0x14(%rsp),%eax
  401265:	6b c0 23             	imul   $0x23,%eax,%eax
  401268:	89 44 24 ec          	mov    %eax,-0x14(%rsp)
  40126c:	8b 44 24 d4          	mov    -0x2c(%rsp),%eax
  401270:	69 c0 27 0a 00 00    	imul   $0xa27,%eax,%eax
  401276:	89 44 24 d4          	mov    %eax,-0x2c(%rsp)
  40127a:	8b 44 24 e8          	mov    -0x18(%rsp),%eax
  40127e:	69 c0 74 4b 00 00    	imul   $0x4b74,%eax,%eax
  401284:	89 44 24 e8          	mov    %eax,-0x18(%rsp)
  401288:	8b 44 24 d8          	mov    -0x28(%rsp),%eax
  40128c:	69 c0 cf a7 00 00    	imul   $0xa7cf,%eax,%eax
  401292:	89 44 24 d8          	mov    %eax,-0x28(%rsp)
  401296:	8b 44 24 d0          	mov    -0x30(%rsp),%eax
  40129a:	69 c0 af 81 00 00    	imul   $0x81af,%eax,%eax
  4012a0:	89 44 24 d0          	mov    %eax,-0x30(%rsp)
  4012a4:	8b 44 24 e0          	mov    -0x20(%rsp),%eax
  4012a8:	69 c0 c8 c4 00 00    	imul   $0xc4c8,%eax,%eax
  4012ae:	89 44 24 e0          	mov    %eax,-0x20(%rsp)
  4012b2:	8b 44 24 ec          	mov    -0x14(%rsp),%eax
  4012b6:	69 c0 f8 74 00 00    	imul   $0x74f8,%eax,%eax
  4012bc:	89 44 24 ec          	mov    %eax,-0x14(%rsp)
  4012c0:	8b 44 24 d0          	mov    -0x30(%rsp),%eax
  4012c4:	69 c0 14 43 00 00    	imul   $0x4314,%eax,%eax
  4012ca:	89 44 24 d0          	mov    %eax,-0x30(%rsp)
  4012ce:	8b 44 24 dc          	mov    -0x24(%rsp),%eax
  4012d2:	69 c0 34 77 00 00    	imul   $0x7734,%eax,%eax
  4012d8:	89 44 24 dc          	mov    %eax,-0x24(%rsp)
  4012dc:	8b 44 24 d0          	mov    -0x30(%rsp),%eax
  4012e0:	69 c0 e5 16 00 00    	imul   $0x16e5,%eax,%eax
  4012e6:	89 44 24 d0          	mov    %eax,-0x30(%rsp)
  4012ea:	8b 44 24 e8          	mov    -0x18(%rsp),%eax
  4012ee:	69 c0 d6 af 00 00    	imul   $0xafd6,%eax,%eax
  4012f4:	89 44 24 e8          	mov    %eax,-0x18(%rsp)
  4012f8:	8b 44 24 d0          	mov    -0x30(%rsp),%eax
  4012fc:	69 c0 bf d9 00 00    	imul   $0xd9bf,%eax,%eax
  401302:	89 44 24 d0          	mov    %eax,-0x30(%rsp)
  401306:	8b 44 24 dc          	mov    -0x24(%rsp),%eax
  40130a:	69 c0 d6 83 00 00    	imul   $0x83d6,%eax,%eax
  401310:	89 44 24 dc          	mov    %eax,-0x24(%rsp)
  401314:	8b 44 24 d8          	mov    -0x28(%rsp),%eax
  401318:	69 c0 62 46 00 00    	imul   $0x4662,%eax,%eax
  40131e:	89 44 24 d8          	mov    %eax,-0x28(%rsp)
  401322:	8b 44 24 dc          	mov    -0x24(%rsp),%eax
  401326:	69 c0 32 a5 00 00    	imul   $0xa532,%eax,%eax
  40132c:	89 44 24 dc          	mov    %eax,-0x24(%rsp)
  401330:	8b 44 24 d8          	mov    -0x28(%rsp),%eax
  401334:	69 c0 e6 ab 00 00    	imul   $0xabe6,%eax,%eax
  40133a:	89 44 24 d8          	mov    %eax,-0x28(%rsp)
  40133e:	8b 44 24 e4          	mov    -0x1c(%rsp),%eax
  401342:	69 c0 5a 60 00 00    	imul   $0x605a,%eax,%eax
  401348:	89 44 24 e4          	mov    %eax,-0x1c(%rsp)
  40134c:	8b 44 24 d0          	mov    -0x30(%rsp),%eax
  401350:	69 c0 95 fe 00 00    	imul   $0xfe95,%eax,%eax
  401356:	89 44 24 d0          	mov    %eax,-0x30(%rsp)
  40135a:	8b 44 24 e8          	mov    -0x18(%rsp),%eax
  40135e:	69 c0 f0 73 00 00    	imul   $0x73f0,%eax,%eax
  401364:	89 44 24 e8          	mov    %eax,-0x18(%rsp)
  401368:	8b 44 24 f4          	mov    -0xc(%rsp),%eax
  40136c:	69 c0 86 ae 00 00    	imul   $0xae86,%eax,%eax
  401372:	89 44 24 f4          	mov    %eax,-0xc(%rsp)
  401376:	8b 44 24 e0          	mov    -0x20(%rsp),%eax
  40137a:	69 c0 04 cd 00 00    	imul   $0xcd04,%eax,%eax
  401380:	89 44 24 e0          	mov    %eax,-0x20(%rsp)
  401384:	8b 44 24 e8          	mov    -0x18(%rsp),%eax
  401388:	69 c0 d7 8e 00 00    	imul   $0x8ed7,%eax,%eax
  40138e:	89 44 24 e8          	mov    %eax,-0x18(%rsp)
  401392:	8b 44 24 ec          	mov    -0x14(%rsp),%eax
  401396:	69 c0 cb f8 00 00    	imul   $0xf8cb,%eax,%eax
  40139c:	89 44 24 ec          	mov    %eax,-0x14(%rsp)
  4013a0:	8b 44 24 d4          	mov    -0x2c(%rsp),%eax
  4013a4:	69 c0 9a 2c 00 00    	imul   $0x2c9a,%eax,%eax
  4013aa:	89 44 24 d4          	mov    %eax,-0x2c(%rsp)
  4013ae:	8b 44 24 e4          	mov    -0x1c(%rsp),%eax
  4013b2:	69 c0 c6 ef 00 00    	imul   $0xefc6,%eax,%eax
  4013b8:	89 44 24 e4          	mov    %eax,-0x1c(%rsp)
  4013bc:	8b 44 24 f4          	mov    -0xc(%rsp),%eax
  4013c0:	69 c0 79 35 00 00    	imul   $0x3579,%eax,%eax
  4013c6:	89 44 24 f4          	mov    %eax,-0xc(%rsp)
  4013ca:	8b 44 24 f0          	mov    -0x10(%rsp),%eax
  4013ce:	69 c0 4b 39 00 00    	imul   $0x394b,%eax,%eax
  4013d4:	89 44 24 f0          	mov    %eax,-0x10(%rsp)
  4013d8:	8b 44 24 ec          	mov    -0x14(%rsp),%eax
  4013dc:	69 c0 cf 03 00 00    	imul   $0x3cf,%eax,%eax
  4013e2:	89 44 24 ec          	mov    %eax,-0x14(%rsp)
  4013e6:	8b 44 24 e4          	mov    -0x1c(%rsp),%eax
  4013ea:	69 c0 a7 bd 00 00    	imul   $0xbda7,%eax,%eax
  4013f0:	89 44 24 e4          	mov    %eax,-0x1c(%rsp)
  4013f4:	8b 44 24 e0          	mov    -0x20(%rsp),%eax
  4013f8:	69 c0 df 71 00 00    	imul   $0x71df,%eax,%eax
  4013fe:	89 44 24 e0          	mov    %eax,-0x20(%rsp)
  401402:	8b 44 24 d0          	mov    -0x30(%rsp),%eax
  401406:	69 c0 d8 1f 00 00    	imul   $0x1fd8,%eax,%eax
  40140c:	89 44 24 d0          	mov    %eax,-0x30(%rsp)
  401410:	8b 44 24 d8          	mov    -0x28(%rsp),%eax
  401414:	69 c0 30 08 00 00    	imul   $0x830,%eax,%eax
  40141a:	89 44 24 d8          	mov    %eax,-0x28(%rsp)
  40141e:	8b 44 24 d4          	mov    -0x2c(%rsp),%eax
  401422:	69 c0 d3 d3 00 00    	imul   $0xd3d3,%eax,%eax
  401428:	89 44 24 d4          	mov    %eax,-0x2c(%rsp)
  40142c:	8b 44 24 f4          	mov    -0xc(%rsp),%eax
  401430:	69 c0 00 2c 00 00    	imul   $0x2c00,%eax,%eax
  401436:	89 44 24 f4          	mov    %eax,-0xc(%rsp)
  40143a:	8b 44 24 f0          	mov    -0x10(%rsp),%eax
  40143e:	69 c0 29 ad 00 00    	imul   $0xad29,%eax,%eax
  401444:	89 44 24 f0          	mov    %eax,-0x10(%rsp)
  401448:	8b 44 24 e8          	mov    -0x18(%rsp),%eax
  40144c:	69 c0 63 3d 00 00    	imul   $0x3d63,%eax,%eax
  401452:	89 44 24 e8          	mov    %eax,-0x18(%rsp)
  401456:	8b 44 24 d8          	mov    -0x28(%rsp),%eax
  40145a:	69 c0 d4 4d 00 00    	imul   $0x4dd4,%eax,%eax
  401460:	89 44 24 d8          	mov    %eax,-0x28(%rsp)
  401464:	8b 44 24 e8          	mov    -0x18(%rsp),%eax
  401468:	69 c0 2a bc 00 00    	imul   $0xbc2a,%eax,%eax
  40146e:	89 44 24 e8          	mov    %eax,-0x18(%rsp)
  401472:	8b 44 24 d4          	mov    -0x2c(%rsp),%eax
  401476:	69 c0 26 9e 00 00    	imul   $0x9e26,%eax,%eax
  40147c:	89 44 24 d4          	mov    %eax,-0x2c(%rsp)
  401480:	8b 44 24 d8          	mov    -0x28(%rsp),%eax
  401484:	69 c0 9f b6 00 00    	imul   $0xb69f,%eax,%eax
  40148a:	89 44 24 d8          	mov    %eax,-0x28(%rsp)
  40148e:	8b 44 24 d4          	mov    -0x2c(%rsp),%eax
  401492:	69 c0 44 2c 00 00    	imul   $0x2c44,%eax,%eax
  401498:	89 44 24 d4          	mov    %eax,-0x2c(%rsp)
  40149c:	8b 44 24 d0          	mov    -0x30(%rsp),%eax
  4014a0:	69 c0 89 2d 00 00    	imul   $0x2d89,%eax,%eax
  4014a6:	89 44 24 d0          	mov    %eax,-0x30(%rsp)
  4014aa:	8b 44 24 d8          	mov    -0x28(%rsp),%eax
  4014ae:	69 c0 51 fb 00 00    	imul   $0xfb51,%eax,%eax
  4014b4:	89 44 24 d8          	mov    %eax,-0x28(%rsp)
  4014b8:	8b 44 24 e4          	mov    -0x1c(%rsp),%eax
  4014bc:	69 c0 b1 22 00 00    	imul   $0x22b1,%eax,%eax
  4014c2:	89 44 24 e4          	mov    %eax,-0x1c(%rsp)
  4014c6:	8b 44 24 dc          	mov    -0x24(%rsp),%eax
  4014ca:	69 c0 89 7b 00 00    	imul   $0x7b89,%eax,%eax
  4014d0:	89 44 24 dc          	mov    %eax,-0x24(%rsp)
  4014d4:	8b 44 24 ec          	mov    -0x14(%rsp),%eax
  4014d8:	69 c0 d3 1b 00 00    	imul   $0x1bd3,%eax,%eax
  4014de:	89 44 24 ec          	mov    %eax,-0x14(%rsp)
  4014e2:	8b 44 24 f4          	mov    -0xc(%rsp),%eax
  4014e6:	69 c0 57 b2 00 00    	imul   $0xb257,%eax,%eax
  4014ec:	89 44 24 f4          	mov    %eax,-0xc(%rsp)
  4014f0:	8b 44 24 d0          	mov    -0x30(%rsp),%eax
  4014f4:	69 c0 93 1b 00 00    	imul   $0x1b93,%eax,%eax
  4014fa:	89 44 24 d0          	mov    %eax,-0x30(%rsp)
  4014fe:	8b 44 24 e4          	mov    -0x1c(%rsp),%eax
  401502:	69 c0 c8 2a 00 00    	imul   $0x2ac8,%eax,%eax
  401508:	89 44 24 e4          	mov    %eax,-0x1c(%rsp)
  40150c:	8b 44 24 f4          	mov    -0xc(%rsp),%eax
  401510:	69 c0 ee cd 00 00    	imul   $0xcdee,%eax,%eax
  401516:	89 44 24 f4          	mov    %eax,-0xc(%rsp)
  40151a:	8b 44 24 f4          	mov    -0xc(%rsp),%eax
  40151e:	69 c0 19 22 00 00    	imul   $0x2219,%eax,%eax
  401524:	89 44 24 f4          	mov    %eax,-0xc(%rsp)
  401528:	8b 44 24 f0          	mov    -0x10(%rsp),%eax
  40152c:	69 c0 1f 52 00 00    	imul   $0x521f,%eax,%eax
  401532:	89 44 24 f0          	mov    %eax,-0x10(%rsp)
  401536:	8b 44 24 d0          	mov    -0x30(%rsp),%eax
  40153a:	69 c0 8b d7 00 00    	imul   $0xd78b,%eax,%eax
  401540:	89 44 24 d0          	mov    %eax,-0x30(%rsp)
  401544:	8b 44 24 dc          	mov    -0x24(%rsp),%eax
  401548:	69 c0 8e b6 00 00    	imul   $0xb68e,%eax,%eax
  40154e:	89 44 24 dc          	mov    %eax,-0x24(%rsp)
  401552:	8b 44 24 dc          	mov    -0x24(%rsp),%eax
  401556:	69 c0 0f f7 00 00    	imul   $0xf70f,%eax,%eax
  40155c:	89 44 24 dc          	mov    %eax,-0x24(%rsp)
  401560:	8b 44 24 f4          	mov    -0xc(%rsp),%eax
  401564:	69 c0 9e 03 00 00    	imul   $0x39e,%eax,%eax
  40156a:	89 44 24 f4          	mov    %eax,-0xc(%rsp)
  40156e:	8b 44 24 f4          	mov    -0xc(%rsp),%eax
  401572:	69 c0 46 59 00 00    	imul   $0x5946,%eax,%eax
  401578:	89 44 24 f4          	mov    %eax,-0xc(%rsp)
  40157c:	8b 44 24 f0          	mov    -0x10(%rsp),%eax
  401580:	69 c0 e3 88 00 00    	imul   $0x88e3,%eax,%eax
  401586:	89 44 24 f0          	mov    %eax,-0x10(%rsp)
  40158a:	8b 44 24 dc          	mov    -0x24(%rsp),%eax
  40158e:	69 c0 80 62 00 00    	imul   $0x6280,%eax,%eax
  401594:	89 44 24 dc          	mov    %eax,-0x24(%rsp)
  401598:	8b 44 24 d4          	mov    -0x2c(%rsp),%eax
  40159c:	69 c0 91 0d 00 00    	imul   $0xd91,%eax,%eax
  4015a2:	89 44 24 d4          	mov    %eax,-0x2c(%rsp)
  4015a6:	8b 44 24 e8          	mov    -0x18(%rsp),%eax
  4015aa:	69 c0 26 40 00 00    	imul   $0x4026,%eax,%eax
  4015b0:	89 44 24 e8          	mov    %eax,-0x18(%rsp)
  4015b4:	8b 44 24 f4          	mov    -0xc(%rsp),%eax
  4015b8:	69 c0 6b 79 00 00    	imul   $0x796b,%eax,%eax
  4015be:	89 44 24 f4          	mov    %eax,-0xc(%rsp)
  4015c2:	8b 44 24 d8          	mov    -0x28(%rsp),%eax
  4015c6:	69 c0 67 4d 00 00    	imul   $0x4d67,%eax,%eax
  4015cc:	89 44 24 d8          	mov    %eax,-0x28(%rsp)
  4015d0:	8b 44 24 ec          	mov    -0x14(%rsp),%eax
  4015d4:	69 c0 a7 78 00 00    	imul   $0x78a7,%eax,%eax
  4015da:	89 44 24 ec          	mov    %eax,-0x14(%rsp)
  4015de:	8b 44 24 d4          	mov    -0x2c(%rsp),%eax
  4015e2:	69 c0 92 dc 00 00    	imul   $0xdc92,%eax,%eax
  4015e8:	89 44 24 d4          	mov    %eax,-0x2c(%rsp)
  4015ec:	8b 44 24 dc          	mov    -0x24(%rsp),%eax
  4015f0:	69 c0 20 50 00 00    	imul   $0x5020,%eax,%eax
  4015f6:	89 44 24 dc          	mov    %eax,-0x24(%rsp)
  4015fa:	8b 44 24 e8          	mov    -0x18(%rsp),%eax
  4015fe:	69 c0 e6 51 00 00    	imul   $0x51e6,%eax,%eax
  401604:	89 44 24 e8          	mov    %eax,-0x18(%rsp)
  401608:	8b 44 24 f0          	mov    -0x10(%rsp),%eax
  40160c:	69 c0 99 6e 00 00    	imul   $0x6e99,%eax,%eax
  401612:	89 44 24 f0          	mov    %eax,-0x10(%rsp)
  401616:	8b 44 24 ec          	mov    -0x14(%rsp),%eax
  40161a:	69 c0 8a b0 00 00    	imul   $0xb08a,%eax,%eax
  401620:	89 44 24 ec          	mov    %eax,-0x14(%rsp)
  401624:	8b 44 24 d4          	mov    -0x2c(%rsp),%eax
  401628:	69 c0 23 9f 00 00    	imul   $0x9f23,%eax,%eax
  40162e:	89 44 24 d4          	mov    %eax,-0x2c(%rsp)
  401632:	8b 44 24 d4          	mov    -0x2c(%rsp),%eax
  401636:	69 c0 55 92 00 00    	imul   $0x9255,%eax,%eax
  40163c:	89 44 24 d4          	mov    %eax,-0x2c(%rsp)
  401640:	8b 44 24 d4          	mov    -0x2c(%rsp),%eax
  401644:	69 c0 ec ca 00 00    	imul   $0xcaec,%eax,%eax
  40164a:	89 44 24 d4          	mov    %eax,-0x2c(%rsp)
  40164e:	8b 44 24 e8          	mov    -0x18(%rsp),%eax
  401652:	69 c0 e9 d3 00 00    	imul   $0xd3e9,%eax,%eax
  401658:	89 44 24 e8          	mov    %eax,-0x18(%rsp)
  40165c:	8b 44 24 e4          	mov    -0x1c(%rsp),%eax
  401660:	69 c0 33 40 00 00    	imul   $0x4033,%eax,%eax
  401666:	89 44 24 e4          	mov    %eax,-0x1c(%rsp)
  40166a:	8b 44 24 e8          	mov    -0x18(%rsp),%eax
  40166e:	69 c0 65 ff 00 00    	imul   $0xff65,%eax,%eax
  401674:	89 44 24 e8          	mov    %eax,-0x18(%rsp)
  401678:	ba 00 00 00 00       	mov    $0x0,%edx
  40167d:	b8 00 00 00 00       	mov    $0x0,%eax
  401682:	eb 0b                	jmp    40168f <scramble+0x467>
  401684:	89 d1                	mov    %edx,%ecx
  401686:	8b 4c 8c d0          	mov    -0x30(%rsp,%rcx,4),%ecx
  40168a:	01 c8                	add    %ecx,%eax
  40168c:	83 c2 01             	add    $0x1,%edx
  40168f:	83 fa 09             	cmp    $0x9,%edx
  401692:	76 f0                	jbe    401684 <scramble+0x45c>
  401694:	f3 c3                	repz retq 

0000000000401696 <getbuf>:
  401696:	48 83 ec 28          	sub    $0x28,%rsp
  40169a:	48 89 e7             	mov    %rsp,%rdi
  40169d:	e8 4f 03 00 00       	callq  4019f1 <Gets>
  4016a2:	b8 01 00 00 00       	mov    $0x1,%eax
  4016a7:	48 83 c4 28          	add    $0x28,%rsp
  4016ab:	c3                   	retq   

00000000004016ac <touch1>:
  4016ac:	48 83 ec 08          	sub    $0x8,%rsp
  4016b0:	c7 05 22 43 20 00 01 	movl   $0x1,0x204322(%rip)        # 6059dc <vlevel>
  4016b7:	00 00 00 
  4016ba:	bf 2d 37 40 00       	mov    $0x40372d,%edi
  4016bf:	e8 6c f5 ff ff       	callq  400c30 <puts@plt>
  4016c4:	bf 01 00 00 00       	mov    $0x1,%edi
  4016c9:	e8 1e 05 00 00       	callq  401bec <validate>
  4016ce:	bf 00 00 00 00       	mov    $0x0,%edi
  4016d3:	e8 d8 f6 ff ff       	callq  400db0 <exit@plt>

00000000004016d8 <touch2>:
  4016d8:	48 83 ec 08          	sub    $0x8,%rsp
  4016dc:	89 fe                	mov    %edi,%esi
  4016de:	c7 05 f4 42 20 00 02 	movl   $0x2,0x2042f4(%rip)        # 6059dc <vlevel>
  4016e5:	00 00 00 
  4016e8:	39 3d f6 42 20 00    	cmp    %edi,0x2042f6(%rip)        # 6059e4 <cookie>
  4016ee:	74 23                	je     401713 <touch2+0x3b>
  4016f0:	bf 78 37 40 00       	mov    $0x403778,%edi
  4016f5:	b8 00 00 00 00       	mov    $0x0,%eax
  4016fa:	e8 61 f5 ff ff       	callq  400c60 <printf@plt>
  4016ff:	bf 02 00 00 00       	mov    $0x2,%edi
  401704:	e8 95 05 00 00       	callq  401c9e <fail>
  401709:	bf 00 00 00 00       	mov    $0x0,%edi
  40170e:	e8 9d f6 ff ff       	callq  400db0 <exit@plt>
  401713:	bf 50 37 40 00       	mov    $0x403750,%edi
  401718:	b8 00 00 00 00       	mov    $0x0,%eax
  40171d:	e8 3e f5 ff ff       	callq  400c60 <printf@plt>
  401722:	bf 02 00 00 00       	mov    $0x2,%edi
  401727:	e8 c0 04 00 00       	callq  401bec <validate>
  40172c:	eb db                	jmp    401709 <touch2+0x31>

000000000040172e <hexmatch>:
  40172e:	41 54                	push   %r12
  401730:	55                   	push   %rbp
  401731:	53                   	push   %rbx
  401732:	48 83 ec 70          	sub    $0x70,%rsp
  401736:	89 fd                	mov    %edi,%ebp
  401738:	48 89 f3             	mov    %rsi,%rbx
  40173b:	e8 d0 f5 ff ff       	callq  400d10 <random@plt>
  401740:	48 89 c1             	mov    %rax,%rcx
  401743:	48 ba 0b d7 a3 70 3d 	movabs $0xa3d70a3d70a3d70b,%rdx
  40174a:	0a d7 a3 
  40174d:	48 f7 ea             	imul   %rdx
  401750:	48 01 ca             	add    %rcx,%rdx
  401753:	48 c1 fa 06          	sar    $0x6,%rdx
  401757:	48 89 c8             	mov    %rcx,%rax
  40175a:	48 c1 f8 3f          	sar    $0x3f,%rax
  40175e:	48 29 c2             	sub    %rax,%rdx
  401761:	48 8d 04 92          	lea    (%rdx,%rdx,4),%rax
  401765:	48 8d 14 80          	lea    (%rax,%rax,4),%rdx
  401769:	48 8d 04 95 00 00 00 	lea    0x0(,%rdx,4),%rax
  401770:	00 
  401771:	48 29 c1             	sub    %rax,%rcx
  401774:	4c 8d 24 0c          	lea    (%rsp,%rcx,1),%r12
  401778:	89 ea                	mov    %ebp,%edx
  40177a:	be 4a 37 40 00       	mov    $0x40374a,%esi
  40177f:	4c 89 e7             	mov    %r12,%rdi
  401782:	b8 00 00 00 00       	mov    $0x0,%eax
  401787:	e8 14 f6 ff ff       	callq  400da0 <sprintf@plt>
  40178c:	ba 09 00 00 00       	mov    $0x9,%edx
  401791:	4c 89 e6             	mov    %r12,%rsi
  401794:	48 89 df             	mov    %rbx,%rdi
  401797:	e8 74 f4 ff ff       	callq  400c10 <strncmp@plt>
  40179c:	85 c0                	test   %eax,%eax
  40179e:	0f 94 c0             	sete   %al
  4017a1:	0f b6 c0             	movzbl %al,%eax
  4017a4:	48 83 c4 70          	add    $0x70,%rsp
  4017a8:	5b                   	pop    %rbx
  4017a9:	5d                   	pop    %rbp
  4017aa:	41 5c                	pop    %r12
  4017ac:	c3                   	retq   

00000000004017ad <touch3>:
  4017ad:	53                   	push   %rbx
  4017ae:	48 89 fb             	mov    %rdi,%rbx
  4017b1:	c7 05 21 42 20 00 03 	movl   $0x3,0x204221(%rip)        # 6059dc <vlevel>
  4017b8:	00 00 00 
  4017bb:	48 89 fe             	mov    %rdi,%rsi
  4017be:	8b 3d 20 42 20 00    	mov    0x204220(%rip),%edi        # 6059e4 <cookie>
  4017c4:	e8 65 ff ff ff       	callq  40172e <hexmatch>
  4017c9:	85 c0                	test   %eax,%eax
  4017cb:	74 26                	je     4017f3 <touch3+0x46>
  4017cd:	48 89 de             	mov    %rbx,%rsi
  4017d0:	bf a0 37 40 00       	mov    $0x4037a0,%edi
  4017d5:	b8 00 00 00 00       	mov    $0x0,%eax
  4017da:	e8 81 f4 ff ff       	callq  400c60 <printf@plt>
  4017df:	bf 03 00 00 00       	mov    $0x3,%edi
  4017e4:	e8 03 04 00 00       	callq  401bec <validate>
  4017e9:	bf 00 00 00 00       	mov    $0x0,%edi
  4017ee:	e8 bd f5 ff ff       	callq  400db0 <exit@plt>
  4017f3:	48 89 de             	mov    %rbx,%rsi
  4017f6:	bf c8 37 40 00       	mov    $0x4037c8,%edi
  4017fb:	b8 00 00 00 00       	mov    $0x0,%eax
  401800:	e8 5b f4 ff ff       	callq  400c60 <printf@plt>
  401805:	bf 03 00 00 00       	mov    $0x3,%edi
  40180a:	e8 8f 04 00 00       	callq  401c9e <fail>
  40180f:	eb d8                	jmp    4017e9 <touch3+0x3c>

0000000000401811 <test>:
  401811:	48 83 ec 08          	sub    $0x8,%rsp
  401815:	b8 00 00 00 00       	mov    $0x0,%eax
  40181a:	e8 77 fe ff ff       	callq  401696 <getbuf>
  40181f:	89 c6                	mov    %eax,%esi
  401821:	bf f0 37 40 00       	mov    $0x4037f0,%edi
  401826:	b8 00 00 00 00       	mov    $0x0,%eax
  40182b:	e8 30 f4 ff ff       	callq  400c60 <printf@plt>
  401830:	48 83 c4 08          	add    $0x8,%rsp
  401834:	c3                   	retq   

0000000000401835 <start_farm>:
  401835:	b8 01 00 00 00       	mov    $0x1,%eax
  40183a:	c3                   	retq   

000000000040183b <addval_180>:
  40183b:	8d 87 8a f3 9a 48    	lea    0x489af38a(%rdi),%eax
  401841:	c3                   	retq   

0000000000401842 <setval_290>:
  401842:	c7 07 31 58 90 90    	movl   $0x90905831,(%rdi)
  401848:	c3                   	retq   

0000000000401849 <setval_352>:
  401849:	c7 07 48 89 c7 90    	movl   $0x90c78948,(%rdi)
  40184f:	c3                   	retq   

0000000000401850 <setval_226>:
  401850:	c7 07 8c 48 a9 c7    	movl   $0xc7a9488c,(%rdi)
  401856:	c3                   	retq   

0000000000401857 <addval_298>:
  401857:	8d 87 6c 48 89 c7    	lea    -0x3876b794(%rdi),%eax
  40185d:	c3                   	retq   

000000000040185e <setval_348>:
  40185e:	c7 07 58 90 90 c3    	movl   $0xc3909058,(%rdi)
  401864:	c3                   	retq   

0000000000401865 <setval_459>:
  401865:	c7 07 48 89 c7 91    	movl   $0x91c78948,(%rdi)
  40186b:	c3                   	retq   

000000000040186c <addval_411>:
  40186c:	8d 87 aa 78 90 90    	lea    -0x6f6f8756(%rdi),%eax
  401872:	c3                   	retq   

0000000000401873 <mid_farm>:
  401873:	b8 01 00 00 00       	mov    $0x1,%eax
  401878:	c3                   	retq   

0000000000401879 <add_xy>:
  401879:	48 8d 04 37          	lea    (%rdi,%rsi,1),%rax
  40187d:	c3                   	retq   

000000000040187e <getval_171>:
  40187e:	b8 6b 48 a9 e0       	mov    $0xe0a9486b,%eax
  401883:	c3                   	retq   

0000000000401884 <getval_406>:
  401884:	b8 89 ca 78 d2       	mov    $0xd278ca89,%eax
  401889:	c3                   	retq   

000000000040188a <setval_243>:
  40188a:	c7 07 89 ca 38 db    	movl   $0xdb38ca89,(%rdi)
  401890:	c3                   	retq   

0000000000401891 <addval_414>:
  401891:	8d 87 a9 d6 08 c9    	lea    -0x36f72957(%rdi),%eax
  401897:	c3                   	retq   

0000000000401898 <getval_167>:
  401898:	b8 48 89 e0 94       	mov    $0x94e08948,%eax
  40189d:	c3                   	retq   

000000000040189e <getval_133>:
  40189e:	b8 48 89 e0 c2       	mov    $0xc2e08948,%eax
  4018a3:	c3                   	retq   

00000000004018a4 <addval_123>:
  4018a4:	8d 87 f1 f8 99 d6    	lea    -0x2966070f(%rdi),%eax
  4018aa:	c3                   	retq   

00000000004018ab <getval_394>:
  4018ab:	b8 89 ca 91 90       	mov    $0x9091ca89,%eax
  4018b0:	c3                   	retq   

00000000004018b1 <setval_235>:
  4018b1:	c7 07 89 ca 20 c9    	movl   $0xc920ca89,(%rdi)
  4018b7:	c3                   	retq   

00000000004018b8 <getval_334>:
  4018b8:	b8 48 89 e0 90       	mov    $0x90e08948,%eax
  4018bd:	c3                   	retq   

00000000004018be <setval_108>:
  4018be:	c7 07 89 c1 84 db    	movl   $0xdb84c189,(%rdi)
  4018c4:	c3                   	retq   

00000000004018c5 <setval_382>:
  4018c5:	c7 07 48 8d e0 c3    	movl   $0xc3e08d48,(%rdi)
  4018cb:	c3                   	retq   

00000000004018cc <setval_401>:
  4018cc:	c7 07 89 c1 28 d2    	movl   $0xd228c189,(%rdi)
  4018d2:	c3                   	retq   

00000000004018d3 <getval_168>:
  4018d3:	b8 c9 ca 90 c3       	mov    $0xc390cac9,%eax
  4018d8:	c3                   	retq   

00000000004018d9 <setval_251>:
  4018d9:	c7 07 89 d6 c4 d2    	movl   $0xd2c4d689,(%rdi)
  4018df:	c3                   	retq   

00000000004018e0 <getval_113>:
  4018e0:	b8 1e ba c9 ca       	mov    $0xcac9ba1e,%eax
  4018e5:	c3                   	retq   

00000000004018e6 <addval_405>:
  4018e6:	8d 87 89 ca 28 c9    	lea    -0x36d73577(%rdi),%eax
  4018ec:	c3                   	retq   

00000000004018ed <getval_498>:
  4018ed:	b8 48 89 e0 91       	mov    $0x91e08948,%eax
  4018f2:	c3                   	retq   

00000000004018f3 <setval_486>:
  4018f3:	c7 07 89 d6 00 c9    	movl   $0xc900d689,(%rdi)
  4018f9:	c3                   	retq   

00000000004018fa <setval_484>:
  4018fa:	c7 07 89 c1 91 90    	movl   $0x9091c189,(%rdi)
  401900:	c3                   	retq   

0000000000401901 <getval_303>:
  401901:	b8 8b d6 90 c3       	mov    $0xc390d68b,%eax
  401906:	c3                   	retq   

0000000000401907 <getval_418>:
  401907:	b8 48 89 e0 90       	mov    $0x90e08948,%eax
  40190c:	c3                   	retq   

000000000040190d <getval_423>:
  40190d:	b8 89 c1 28 db       	mov    $0xdb28c189,%eax
  401912:	c3                   	retq   

0000000000401913 <setval_451>:
  401913:	c7 07 89 ca 91 c3    	movl   $0xc391ca89,(%rdi)
  401919:	c3                   	retq   

000000000040191a <addval_335>:
  40191a:	8d 87 8d c1 20 c9    	lea    -0x36df3e73(%rdi),%eax
  401920:	c3                   	retq   

0000000000401921 <setval_475>:
  401921:	c7 07 4a 89 e0 c3    	movl   $0xc3e0894a,(%rdi)
  401927:	c3                   	retq   

0000000000401928 <getval_305>:
  401928:	b8 89 d6 c2 c9       	mov    $0xc9c2d689,%eax
  40192d:	c3                   	retq   

000000000040192e <addval_211>:
  40192e:	8d 87 89 c1 30 db    	lea    -0x24cf3e77(%rdi),%eax
  401934:	c3                   	retq   

0000000000401935 <setval_219>:
  401935:	c7 07 89 d6 20 c0    	movl   $0xc020d689,(%rdi)
  40193b:	c3                   	retq   

000000000040193c <setval_242>:
  40193c:	c7 07 89 c1 08 db    	movl   $0xdb08c189,(%rdi)
  401942:	c3                   	retq   

0000000000401943 <setval_256>:
  401943:	c7 07 89 d6 38 c9    	movl   $0xc938d689,(%rdi)
  401949:	c3                   	retq   

000000000040194a <addval_192>:
  40194a:	8d 87 8b c1 08 db    	lea    -0x24f73e75(%rdi),%eax
  401950:	c3                   	retq   

0000000000401951 <end_farm>:
  401951:	b8 01 00 00 00       	mov    $0x1,%eax
  401956:	c3                   	retq   

0000000000401957 <save_char>:
  401957:	8b 05 a7 4c 20 00    	mov    0x204ca7(%rip),%eax        # 606604 <gets_cnt>
  40195d:	3d ff 03 00 00       	cmp    $0x3ff,%eax
  401962:	7f 49                	jg     4019ad <save_char+0x56>
  401964:	89 f9                	mov    %edi,%ecx
  401966:	c0 e9 04             	shr    $0x4,%cl
  401969:	8d 14 40             	lea    (%rax,%rax,2),%edx
  40196c:	83 e1 0f             	and    $0xf,%ecx
  40196f:	0f b6 b1 10 3b 40 00 	movzbl 0x403b10(%rcx),%esi
  401976:	48 63 ca             	movslq %edx,%rcx
  401979:	40 88 b1 00 5a 60 00 	mov    %sil,0x605a00(%rcx)
  401980:	8d 4a 01             	lea    0x1(%rdx),%ecx
  401983:	83 e7 0f             	and    $0xf,%edi
  401986:	0f b6 b7 10 3b 40 00 	movzbl 0x403b10(%rdi),%esi
  40198d:	48 63 c9             	movslq %ecx,%rcx
  401990:	40 88 b1 00 5a 60 00 	mov    %sil,0x605a00(%rcx)
  401997:	83 c2 02             	add    $0x2,%edx
  40199a:	48 63 d2             	movslq %edx,%rdx
  40199d:	c6 82 00 5a 60 00 20 	movb   $0x20,0x605a00(%rdx)
  4019a4:	83 c0 01             	add    $0x1,%eax
  4019a7:	89 05 57 4c 20 00    	mov    %eax,0x204c57(%rip)        # 606604 <gets_cnt>
  4019ad:	f3 c3                	repz retq 

00000000004019af <save_term>:
  4019af:	8b 05 4f 4c 20 00    	mov    0x204c4f(%rip),%eax        # 606604 <gets_cnt>
  4019b5:	8d 04 40             	lea    (%rax,%rax,2),%eax
  4019b8:	48 98                	cltq   
  4019ba:	c6 80 00 5a 60 00 00 	movb   $0x0,0x605a00(%rax)
  4019c1:	c3                   	retq   

00000000004019c2 <check_fail>:
  4019c2:	48 83 ec 08          	sub    $0x8,%rsp
  4019c6:	0f be 35 3b 4c 20 00 	movsbl 0x204c3b(%rip),%esi        # 606608 <target_prefix>
  4019cd:	b9 00 5a 60 00       	mov    $0x605a00,%ecx
  4019d2:	8b 15 00 40 20 00    	mov    0x204000(%rip),%edx        # 6059d8 <check_level>
  4019d8:	bf 13 38 40 00       	mov    $0x403813,%edi
  4019dd:	b8 00 00 00 00       	mov    $0x0,%eax
  4019e2:	e8 79 f2 ff ff       	callq  400c60 <printf@plt>
  4019e7:	bf 01 00 00 00       	mov    $0x1,%edi
  4019ec:	e8 bf f3 ff ff       	callq  400db0 <exit@plt>

00000000004019f1 <Gets>:
  4019f1:	41 54                	push   %r12
  4019f3:	55                   	push   %rbp
  4019f4:	53                   	push   %rbx
  4019f5:	49 89 fc             	mov    %rdi,%r12
  4019f8:	c7 05 02 4c 20 00 00 	movl   $0x0,0x204c02(%rip)        # 606604 <gets_cnt>
  4019ff:	00 00 00 
  401a02:	48 89 fb             	mov    %rdi,%rbx
  401a05:	eb 11                	jmp    401a18 <Gets+0x27>
  401a07:	48 8d 6b 01          	lea    0x1(%rbx),%rbp
  401a0b:	88 03                	mov    %al,(%rbx)
  401a0d:	0f b6 f8             	movzbl %al,%edi
  401a10:	e8 42 ff ff ff       	callq  401957 <save_char>
  401a15:	48 89 eb             	mov    %rbp,%rbx
  401a18:	48 8b 3d b1 3f 20 00 	mov    0x203fb1(%rip),%rdi        # 6059d0 <infile>
  401a1f:	e8 fc f2 ff ff       	callq  400d20 <_IO_getc@plt>
  401a24:	83 f8 ff             	cmp    $0xffffffff,%eax
  401a27:	74 05                	je     401a2e <Gets+0x3d>
  401a29:	83 f8 0a             	cmp    $0xa,%eax
  401a2c:	75 d9                	jne    401a07 <Gets+0x16>
  401a2e:	c6 03 00             	movb   $0x0,(%rbx)
  401a31:	b8 00 00 00 00       	mov    $0x0,%eax
  401a36:	e8 74 ff ff ff       	callq  4019af <save_term>
  401a3b:	4c 89 e0             	mov    %r12,%rax
  401a3e:	5b                   	pop    %rbx
  401a3f:	5d                   	pop    %rbp
  401a40:	41 5c                	pop    %r12
  401a42:	c3                   	retq   

0000000000401a43 <notify_server>:
  401a43:	83 3d 9e 3f 20 00 00 	cmpl   $0x0,0x203f9e(%rip)        # 6059e8 <is_checker>
  401a4a:	0f 85 9a 01 00 00    	jne    401bea <notify_server+0x1a7>
  401a50:	55                   	push   %rbp
  401a51:	53                   	push   %rbx
  401a52:	48 81 ec 08 40 00 00 	sub    $0x4008,%rsp
  401a59:	89 fb                	mov    %edi,%ebx
  401a5b:	8b 05 a3 4b 20 00    	mov    0x204ba3(%rip),%eax        # 606604 <gets_cnt>
  401a61:	83 c0 64             	add    $0x64,%eax
  401a64:	3d 00 20 00 00       	cmp    $0x2000,%eax
  401a69:	0f 8f b5 00 00 00    	jg     401b24 <notify_server+0xe1>
  401a6f:	44 0f be 0d 91 4b 20 	movsbl 0x204b91(%rip),%r9d        # 606608 <target_prefix>
  401a76:	00 
  401a77:	83 3d ea 3e 20 00 00 	cmpl   $0x0,0x203eea(%rip)        # 605968 <notify>
  401a7e:	0f 84 b9 00 00 00    	je     401b3d <notify_server+0xfa>
  401a84:	44 8b 05 55 3f 20 00 	mov    0x203f55(%rip),%r8d        # 6059e0 <authkey>
  401a8b:	85 db                	test   %ebx,%ebx
  401a8d:	0f 84 b5 00 00 00    	je     401b48 <notify_server+0x105>
  401a93:	bd 29 38 40 00       	mov    $0x403829,%ebp
  401a98:	68 00 5a 60 00       	pushq  $0x605a00
  401a9d:	56                   	push   %rsi
  401a9e:	48 89 e9             	mov    %rbp,%rcx
  401aa1:	8b 15 a1 36 20 00    	mov    0x2036a1(%rip),%edx        # 605148 <target_id>
  401aa7:	be 33 38 40 00       	mov    $0x403833,%esi
  401aac:	48 8d bc 24 10 20 00 	lea    0x2010(%rsp),%rdi
  401ab3:	00 
  401ab4:	b8 00 00 00 00       	mov    $0x0,%eax
  401ab9:	e8 e2 f2 ff ff       	callq  400da0 <sprintf@plt>
  401abe:	48 83 c4 10          	add    $0x10,%rsp
  401ac2:	83 3d 9f 3e 20 00 00 	cmpl   $0x0,0x203e9f(%rip)        # 605968 <notify>
  401ac9:	0f 84 ab 00 00 00    	je     401b7a <notify_server+0x137>
  401acf:	85 db                	test   %ebx,%ebx
  401ad1:	0f 84 97 00 00 00    	je     401b6e <notify_server+0x12b>
  401ad7:	49 89 e1             	mov    %rsp,%r9
  401ada:	41 b8 00 00 00 00    	mov    $0x0,%r8d
  401ae0:	48 8d 8c 24 00 20 00 	lea    0x2000(%rsp),%rcx
  401ae7:	00 
  401ae8:	48 8b 15 61 36 20 00 	mov    0x203661(%rip),%rdx        # 605150 <lab>
  401aef:	48 8b 35 62 36 20 00 	mov    0x203662(%rip),%rsi        # 605158 <course>
  401af6:	48 8b 3d 43 36 20 00 	mov    0x203643(%rip),%rdi        # 605140 <user_id>
  401afd:	e8 db 0f 00 00       	callq  402add <driver_post>
  401b02:	85 c0                	test   %eax,%eax
  401b04:	78 4c                	js     401b52 <notify_server+0x10f>
  401b06:	bf 78 39 40 00       	mov    $0x403978,%edi
  401b0b:	e8 20 f1 ff ff       	callq  400c30 <puts@plt>
  401b10:	bf 5b 38 40 00       	mov    $0x40385b,%edi
  401b15:	e8 16 f1 ff ff       	callq  400c30 <puts@plt>
  401b1a:	48 81 c4 08 40 00 00 	add    $0x4008,%rsp
  401b21:	5b                   	pop    %rbx
  401b22:	5d                   	pop    %rbp
  401b23:	c3                   	retq   
  401b24:	bf 48 39 40 00       	mov    $0x403948,%edi
  401b29:	b8 00 00 00 00       	mov    $0x0,%eax
  401b2e:	e8 2d f1 ff ff       	callq  400c60 <printf@plt>
  401b33:	bf 01 00 00 00       	mov    $0x1,%edi
  401b38:	e8 73 f2 ff ff       	callq  400db0 <exit@plt>
  401b3d:	41 b8 ff ff ff ff    	mov    $0xffffffff,%r8d
  401b43:	e9 43 ff ff ff       	jmpq   401a8b <notify_server+0x48>
  401b48:	bd 2e 38 40 00       	mov    $0x40382e,%ebp
  401b4d:	e9 46 ff ff ff       	jmpq   401a98 <notify_server+0x55>
  401b52:	48 89 e6             	mov    %rsp,%rsi
  401b55:	bf 4f 38 40 00       	mov    $0x40384f,%edi
  401b5a:	b8 00 00 00 00       	mov    $0x0,%eax
  401b5f:	e8 fc f0 ff ff       	callq  400c60 <printf@plt>
  401b64:	bf 01 00 00 00       	mov    $0x1,%edi
  401b69:	e8 42 f2 ff ff       	callq  400db0 <exit@plt>
  401b6e:	bf 65 38 40 00       	mov    $0x403865,%edi
  401b73:	e8 b8 f0 ff ff       	callq  400c30 <puts@plt>
  401b78:	eb a0                	jmp    401b1a <notify_server+0xd7>
  401b7a:	48 89 ee             	mov    %rbp,%rsi
  401b7d:	bf b0 39 40 00       	mov    $0x4039b0,%edi
  401b82:	b8 00 00 00 00       	mov    $0x0,%eax
  401b87:	e8 d4 f0 ff ff       	callq  400c60 <printf@plt>
  401b8c:	48 8b 35 ad 35 20 00 	mov    0x2035ad(%rip),%rsi        # 605140 <user_id>
  401b93:	bf 6c 38 40 00       	mov    $0x40386c,%edi
  401b98:	b8 00 00 00 00       	mov    $0x0,%eax
  401b9d:	e8 be f0 ff ff       	callq  400c60 <printf@plt>
  401ba2:	48 8b 35 af 35 20 00 	mov    0x2035af(%rip),%rsi        # 605158 <course>
  401ba9:	bf 79 38 40 00       	mov    $0x403879,%edi
  401bae:	b8 00 00 00 00       	mov    $0x0,%eax
  401bb3:	e8 a8 f0 ff ff       	callq  400c60 <printf@plt>
  401bb8:	48 8b 35 91 35 20 00 	mov    0x203591(%rip),%rsi        # 605150 <lab>
  401bbf:	bf 85 38 40 00       	mov    $0x403885,%edi
  401bc4:	b8 00 00 00 00       	mov    $0x0,%eax
  401bc9:	e8 92 f0 ff ff       	callq  400c60 <printf@plt>
  401bce:	48 8d b4 24 00 20 00 	lea    0x2000(%rsp),%rsi
  401bd5:	00 
  401bd6:	bf 8e 38 40 00       	mov    $0x40388e,%edi
  401bdb:	b8 00 00 00 00       	mov    $0x0,%eax
  401be0:	e8 7b f0 ff ff       	callq  400c60 <printf@plt>
  401be5:	e9 30 ff ff ff       	jmpq   401b1a <notify_server+0xd7>
  401bea:	f3 c3                	repz retq 

0000000000401bec <validate>:
  401bec:	53                   	push   %rbx
  401bed:	89 fb                	mov    %edi,%ebx
  401bef:	83 3d f2 3d 20 00 00 	cmpl   $0x0,0x203df2(%rip)        # 6059e8 <is_checker>
  401bf6:	74 60                	je     401c58 <validate+0x6c>
  401bf8:	39 3d de 3d 20 00    	cmp    %edi,0x203dde(%rip)        # 6059dc <vlevel>
  401bfe:	75 29                	jne    401c29 <validate+0x3d>
  401c00:	8b 35 d2 3d 20 00    	mov    0x203dd2(%rip),%esi        # 6059d8 <check_level>
  401c06:	39 fe                	cmp    %edi,%esi
  401c08:	75 33                	jne    401c3d <validate+0x51>
  401c0a:	0f be 35 f7 49 20 00 	movsbl 0x2049f7(%rip),%esi        # 606608 <target_prefix>
  401c11:	b9 00 5a 60 00       	mov    $0x605a00,%ecx
  401c16:	89 fa                	mov    %edi,%edx
  401c18:	bf b8 38 40 00       	mov    $0x4038b8,%edi
  401c1d:	b8 00 00 00 00       	mov    $0x0,%eax
  401c22:	e8 39 f0 ff ff       	callq  400c60 <printf@plt>
  401c27:	5b                   	pop    %rbx
  401c28:	c3                   	retq   
  401c29:	bf 9a 38 40 00       	mov    $0x40389a,%edi
  401c2e:	e8 fd ef ff ff       	callq  400c30 <puts@plt>
  401c33:	b8 00 00 00 00       	mov    $0x0,%eax
  401c38:	e8 85 fd ff ff       	callq  4019c2 <check_fail>
  401c3d:	89 fa                	mov    %edi,%edx
  401c3f:	bf d8 39 40 00       	mov    $0x4039d8,%edi
  401c44:	b8 00 00 00 00       	mov    $0x0,%eax
  401c49:	e8 12 f0 ff ff       	callq  400c60 <printf@plt>
  401c4e:	b8 00 00 00 00       	mov    $0x0,%eax
  401c53:	e8 6a fd ff ff       	callq  4019c2 <check_fail>
  401c58:	39 3d 7e 3d 20 00    	cmp    %edi,0x203d7e(%rip)        # 6059dc <vlevel>
  401c5e:	74 18                	je     401c78 <validate+0x8c>
  401c60:	bf 9a 38 40 00       	mov    $0x40389a,%edi
  401c65:	e8 c6 ef ff ff       	callq  400c30 <puts@plt>
  401c6a:	89 de                	mov    %ebx,%esi
  401c6c:	bf 00 00 00 00       	mov    $0x0,%edi
  401c71:	e8 cd fd ff ff       	callq  401a43 <notify_server>
  401c76:	eb af                	jmp    401c27 <validate+0x3b>
  401c78:	0f be 15 89 49 20 00 	movsbl 0x204989(%rip),%edx        # 606608 <target_prefix>
  401c7f:	89 fe                	mov    %edi,%esi
  401c81:	bf 00 3a 40 00       	mov    $0x403a00,%edi
  401c86:	b8 00 00 00 00       	mov    $0x0,%eax
  401c8b:	e8 d0 ef ff ff       	callq  400c60 <printf@plt>
  401c90:	89 de                	mov    %ebx,%esi
  401c92:	bf 01 00 00 00       	mov    $0x1,%edi
  401c97:	e8 a7 fd ff ff       	callq  401a43 <notify_server>
  401c9c:	eb 89                	jmp    401c27 <validate+0x3b>

0000000000401c9e <fail>:
  401c9e:	48 83 ec 08          	sub    $0x8,%rsp
  401ca2:	83 3d 3f 3d 20 00 00 	cmpl   $0x0,0x203d3f(%rip)        # 6059e8 <is_checker>
  401ca9:	75 11                	jne    401cbc <fail+0x1e>
  401cab:	89 fe                	mov    %edi,%esi
  401cad:	bf 00 00 00 00       	mov    $0x0,%edi
  401cb2:	e8 8c fd ff ff       	callq  401a43 <notify_server>
  401cb7:	48 83 c4 08          	add    $0x8,%rsp
  401cbb:	c3                   	retq   
  401cbc:	b8 00 00 00 00       	mov    $0x0,%eax
  401cc1:	e8 fc fc ff ff       	callq  4019c2 <check_fail>

0000000000401cc6 <bushandler>:
  401cc6:	48 83 ec 08          	sub    $0x8,%rsp
  401cca:	83 3d 17 3d 20 00 00 	cmpl   $0x0,0x203d17(%rip)        # 6059e8 <is_checker>
  401cd1:	74 14                	je     401ce7 <bushandler+0x21>
  401cd3:	bf cd 38 40 00       	mov    $0x4038cd,%edi
  401cd8:	e8 53 ef ff ff       	callq  400c30 <puts@plt>
  401cdd:	b8 00 00 00 00       	mov    $0x0,%eax
  401ce2:	e8 db fc ff ff       	callq  4019c2 <check_fail>
  401ce7:	bf 38 3a 40 00       	mov    $0x403a38,%edi
  401cec:	e8 3f ef ff ff       	callq  400c30 <puts@plt>
  401cf1:	bf d7 38 40 00       	mov    $0x4038d7,%edi
  401cf6:	e8 35 ef ff ff       	callq  400c30 <puts@plt>
  401cfb:	be 00 00 00 00       	mov    $0x0,%esi
  401d00:	bf 00 00 00 00       	mov    $0x0,%edi
  401d05:	e8 39 fd ff ff       	callq  401a43 <notify_server>
  401d0a:	bf 01 00 00 00       	mov    $0x1,%edi
  401d0f:	e8 9c f0 ff ff       	callq  400db0 <exit@plt>

0000000000401d14 <seghandler>:
  401d14:	48 83 ec 08          	sub    $0x8,%rsp
  401d18:	83 3d c9 3c 20 00 00 	cmpl   $0x0,0x203cc9(%rip)        # 6059e8 <is_checker>
  401d1f:	74 14                	je     401d35 <seghandler+0x21>
  401d21:	bf ed 38 40 00       	mov    $0x4038ed,%edi
  401d26:	e8 05 ef ff ff       	callq  400c30 <puts@plt>
  401d2b:	b8 00 00 00 00       	mov    $0x0,%eax
  401d30:	e8 8d fc ff ff       	callq  4019c2 <check_fail>
  401d35:	bf 58 3a 40 00       	mov    $0x403a58,%edi
  401d3a:	e8 f1 ee ff ff       	callq  400c30 <puts@plt>
  401d3f:	bf d7 38 40 00       	mov    $0x4038d7,%edi
  401d44:	e8 e7 ee ff ff       	callq  400c30 <puts@plt>
  401d49:	be 00 00 00 00       	mov    $0x0,%esi
  401d4e:	bf 00 00 00 00       	mov    $0x0,%edi
  401d53:	e8 eb fc ff ff       	callq  401a43 <notify_server>
  401d58:	bf 01 00 00 00       	mov    $0x1,%edi
  401d5d:	e8 4e f0 ff ff       	callq  400db0 <exit@plt>

0000000000401d62 <illegalhandler>:
  401d62:	48 83 ec 08          	sub    $0x8,%rsp
  401d66:	83 3d 7b 3c 20 00 00 	cmpl   $0x0,0x203c7b(%rip)        # 6059e8 <is_checker>
  401d6d:	74 14                	je     401d83 <illegalhandler+0x21>
  401d6f:	bf 00 39 40 00       	mov    $0x403900,%edi
  401d74:	e8 b7 ee ff ff       	callq  400c30 <puts@plt>
  401d79:	b8 00 00 00 00       	mov    $0x0,%eax
  401d7e:	e8 3f fc ff ff       	callq  4019c2 <check_fail>
  401d83:	bf 80 3a 40 00       	mov    $0x403a80,%edi
  401d88:	e8 a3 ee ff ff       	callq  400c30 <puts@plt>
  401d8d:	bf d7 38 40 00       	mov    $0x4038d7,%edi
  401d92:	e8 99 ee ff ff       	callq  400c30 <puts@plt>
  401d97:	be 00 00 00 00       	mov    $0x0,%esi
  401d9c:	bf 00 00 00 00       	mov    $0x0,%edi
  401da1:	e8 9d fc ff ff       	callq  401a43 <notify_server>
  401da6:	bf 01 00 00 00       	mov    $0x1,%edi
  401dab:	e8 00 f0 ff ff       	callq  400db0 <exit@plt>

0000000000401db0 <sigalrmhandler>:
  401db0:	48 83 ec 08          	sub    $0x8,%rsp
  401db4:	83 3d 2d 3c 20 00 00 	cmpl   $0x0,0x203c2d(%rip)        # 6059e8 <is_checker>
  401dbb:	74 14                	je     401dd1 <sigalrmhandler+0x21>
  401dbd:	bf 14 39 40 00       	mov    $0x403914,%edi
  401dc2:	e8 69 ee ff ff       	callq  400c30 <puts@plt>
  401dc7:	b8 00 00 00 00       	mov    $0x0,%eax
  401dcc:	e8 f1 fb ff ff       	callq  4019c2 <check_fail>
  401dd1:	be 05 00 00 00       	mov    $0x5,%esi
  401dd6:	bf b0 3a 40 00       	mov    $0x403ab0,%edi
  401ddb:	b8 00 00 00 00       	mov    $0x0,%eax
  401de0:	e8 7b ee ff ff       	callq  400c60 <printf@plt>
  401de5:	be 00 00 00 00       	mov    $0x0,%esi
  401dea:	bf 00 00 00 00       	mov    $0x0,%edi
  401def:	e8 4f fc ff ff       	callq  401a43 <notify_server>
  401df4:	bf 01 00 00 00       	mov    $0x1,%edi
  401df9:	e8 b2 ef ff ff       	callq  400db0 <exit@plt>

0000000000401dfe <launch>:
  401dfe:	55                   	push   %rbp
  401dff:	48 89 e5             	mov    %rsp,%rbp
  401e02:	48 89 fa             	mov    %rdi,%rdx
  401e05:	48 8d 47 1e          	lea    0x1e(%rdi),%rax
  401e09:	48 83 e0 f0          	and    $0xfffffffffffffff0,%rax
  401e0d:	48 29 c4             	sub    %rax,%rsp
  401e10:	48 8d 7c 24 0f       	lea    0xf(%rsp),%rdi
  401e15:	48 83 e7 f0          	and    $0xfffffffffffffff0,%rdi
  401e19:	be f4 00 00 00       	mov    $0xf4,%esi
  401e1e:	e8 4d ee ff ff       	callq  400c70 <memset@plt>
  401e23:	48 8b 05 56 3b 20 00 	mov    0x203b56(%rip),%rax        # 605980 <stdin@@GLIBC_2.2.5>
  401e2a:	48 39 05 9f 3b 20 00 	cmp    %rax,0x203b9f(%rip)        # 6059d0 <infile>
  401e31:	74 29                	je     401e5c <launch+0x5e>
  401e33:	c7 05 9f 3b 20 00 00 	movl   $0x0,0x203b9f(%rip)        # 6059dc <vlevel>
  401e3a:	00 00 00 
  401e3d:	b8 00 00 00 00       	mov    $0x0,%eax
  401e42:	e8 ca f9 ff ff       	callq  401811 <test>
  401e47:	83 3d 9a 3b 20 00 00 	cmpl   $0x0,0x203b9a(%rip)        # 6059e8 <is_checker>
  401e4e:	75 1d                	jne    401e6d <launch+0x6f>
  401e50:	bf 34 39 40 00       	mov    $0x403934,%edi
  401e55:	e8 d6 ed ff ff       	callq  400c30 <puts@plt>
  401e5a:	c9                   	leaveq 
  401e5b:	c3                   	retq   
  401e5c:	bf 1c 39 40 00       	mov    $0x40391c,%edi
  401e61:	b8 00 00 00 00       	mov    $0x0,%eax
  401e66:	e8 f5 ed ff ff       	callq  400c60 <printf@plt>
  401e6b:	eb c6                	jmp    401e33 <launch+0x35>
  401e6d:	bf 29 39 40 00       	mov    $0x403929,%edi
  401e72:	e8 b9 ed ff ff       	callq  400c30 <puts@plt>
  401e77:	b8 00 00 00 00       	mov    $0x0,%eax
  401e7c:	e8 41 fb ff ff       	callq  4019c2 <check_fail>

0000000000401e81 <stable_launch>:
  401e81:	53                   	push   %rbx
  401e82:	48 89 3d 3f 3b 20 00 	mov    %rdi,0x203b3f(%rip)        # 6059c8 <global_offset>
  401e89:	41 b9 00 00 00 00    	mov    $0x0,%r9d
  401e8f:	41 b8 00 00 00 00    	mov    $0x0,%r8d
  401e95:	b9 32 01 00 00       	mov    $0x132,%ecx
  401e9a:	ba 07 00 00 00       	mov    $0x7,%edx
  401e9f:	be 00 00 10 00       	mov    $0x100000,%esi
  401ea4:	bf 00 60 58 55       	mov    $0x55586000,%edi
  401ea9:	e8 a2 ed ff ff       	callq  400c50 <mmap@plt>
  401eae:	48 89 c3             	mov    %rax,%rbx
  401eb1:	48 3d 00 60 58 55    	cmp    $0x55586000,%rax
  401eb7:	75 43                	jne    401efc <stable_launch+0x7b>
  401eb9:	48 8d 90 f8 ff 0f 00 	lea    0xffff8(%rax),%rdx
  401ec0:	48 89 15 49 47 20 00 	mov    %rdx,0x204749(%rip)        # 606610 <stack_top>
  401ec7:	48 89 e0             	mov    %rsp,%rax
  401eca:	48 89 d4             	mov    %rdx,%rsp
  401ecd:	48 89 c2             	mov    %rax,%rdx
  401ed0:	48 89 15 e9 3a 20 00 	mov    %rdx,0x203ae9(%rip)        # 6059c0 <global_save_stack>
  401ed7:	48 8b 3d ea 3a 20 00 	mov    0x203aea(%rip),%rdi        # 6059c8 <global_offset>
  401ede:	e8 1b ff ff ff       	callq  401dfe <launch>
  401ee3:	48 8b 05 d6 3a 20 00 	mov    0x203ad6(%rip),%rax        # 6059c0 <global_save_stack>
  401eea:	48 89 c4             	mov    %rax,%rsp
  401eed:	be 00 00 10 00       	mov    $0x100000,%esi
  401ef2:	48 89 df             	mov    %rbx,%rdi
  401ef5:	e8 46 ee ff ff       	callq  400d40 <munmap@plt>
  401efa:	5b                   	pop    %rbx
  401efb:	c3                   	retq   
  401efc:	be 00 00 10 00       	mov    $0x100000,%esi
  401f01:	48 89 c7             	mov    %rax,%rdi
  401f04:	e8 37 ee ff ff       	callq  400d40 <munmap@plt>
  401f09:	ba 00 60 58 55       	mov    $0x55586000,%edx
  401f0e:	be e8 3a 40 00       	mov    $0x403ae8,%esi
  401f13:	48 8b 3d 86 3a 20 00 	mov    0x203a86(%rip),%rdi        # 6059a0 <stderr@@GLIBC_2.2.5>
  401f1a:	b8 00 00 00 00       	mov    $0x0,%eax
  401f1f:	e8 ac ed ff ff       	callq  400cd0 <fprintf@plt>
  401f24:	bf 01 00 00 00       	mov    $0x1,%edi
  401f29:	e8 82 ee ff ff       	callq  400db0 <exit@plt>

0000000000401f2e <rio_readinitb>:
  401f2e:	89 37                	mov    %esi,(%rdi)
  401f30:	c7 47 04 00 00 00 00 	movl   $0x0,0x4(%rdi)
  401f37:	48 8d 47 10          	lea    0x10(%rdi),%rax
  401f3b:	48 89 47 08          	mov    %rax,0x8(%rdi)
  401f3f:	c3                   	retq   

0000000000401f40 <sigalrm_handler>:
  401f40:	48 83 ec 08          	sub    $0x8,%rsp
  401f44:	ba 00 00 00 00       	mov    $0x0,%edx
  401f49:	be 20 3b 40 00       	mov    $0x403b20,%esi
  401f4e:	48 8b 3d 4b 3a 20 00 	mov    0x203a4b(%rip),%rdi        # 6059a0 <stderr@@GLIBC_2.2.5>
  401f55:	b8 00 00 00 00       	mov    $0x0,%eax
  401f5a:	e8 71 ed ff ff       	callq  400cd0 <fprintf@plt>
  401f5f:	bf 01 00 00 00       	mov    $0x1,%edi
  401f64:	e8 47 ee ff ff       	callq  400db0 <exit@plt>

0000000000401f69 <urlencode>:
  401f69:	41 54                	push   %r12
  401f6b:	55                   	push   %rbp
  401f6c:	53                   	push   %rbx
  401f6d:	48 83 ec 10          	sub    $0x10,%rsp
  401f71:	48 89 fb             	mov    %rdi,%rbx
  401f74:	48 89 f5             	mov    %rsi,%rbp
  401f77:	48 c7 c1 ff ff ff ff 	mov    $0xffffffffffffffff,%rcx
  401f7e:	b8 00 00 00 00       	mov    $0x0,%eax
  401f83:	f2 ae                	repnz scas %es:(%rdi),%al
  401f85:	48 89 ce             	mov    %rcx,%rsi
  401f88:	48 f7 d6             	not    %rsi
  401f8b:	8d 46 ff             	lea    -0x1(%rsi),%eax
  401f8e:	eb 0e                	jmp    401f9e <urlencode+0x35>
  401f90:	88 45 00             	mov    %al,0x0(%rbp)
  401f93:	48 8d 6d 01          	lea    0x1(%rbp),%rbp
  401f97:	48 83 c3 01          	add    $0x1,%rbx
  401f9b:	44 89 e0             	mov    %r12d,%eax
  401f9e:	44 8d 60 ff          	lea    -0x1(%rax),%r12d
  401fa2:	85 c0                	test   %eax,%eax
  401fa4:	0f 84 91 00 00 00    	je     40203b <urlencode+0xd2>
  401faa:	0f b6 03             	movzbl (%rbx),%eax
  401fad:	3c 2a                	cmp    $0x2a,%al
  401faf:	0f 94 c1             	sete   %cl
  401fb2:	3c 2d                	cmp    $0x2d,%al
  401fb4:	0f 94 c2             	sete   %dl
  401fb7:	08 d1                	or     %dl,%cl
  401fb9:	75 d5                	jne    401f90 <urlencode+0x27>
  401fbb:	3c 2e                	cmp    $0x2e,%al
  401fbd:	74 d1                	je     401f90 <urlencode+0x27>
  401fbf:	3c 5f                	cmp    $0x5f,%al
  401fc1:	74 cd                	je     401f90 <urlencode+0x27>
  401fc3:	8d 50 d0             	lea    -0x30(%rax),%edx
  401fc6:	80 fa 09             	cmp    $0x9,%dl
  401fc9:	76 c5                	jbe    401f90 <urlencode+0x27>
  401fcb:	8d 50 bf             	lea    -0x41(%rax),%edx
  401fce:	80 fa 19             	cmp    $0x19,%dl
  401fd1:	76 bd                	jbe    401f90 <urlencode+0x27>
  401fd3:	8d 50 9f             	lea    -0x61(%rax),%edx
  401fd6:	80 fa 19             	cmp    $0x19,%dl
  401fd9:	76 b5                	jbe    401f90 <urlencode+0x27>
  401fdb:	3c 20                	cmp    $0x20,%al
  401fdd:	74 4a                	je     402029 <urlencode+0xc0>
  401fdf:	8d 50 e0             	lea    -0x20(%rax),%edx
  401fe2:	80 fa 5f             	cmp    $0x5f,%dl
  401fe5:	0f 96 c1             	setbe  %cl
  401fe8:	3c 09                	cmp    $0x9,%al
  401fea:	0f 94 c2             	sete   %dl
  401fed:	08 d1                	or     %dl,%cl
  401fef:	74 45                	je     402036 <urlencode+0xcd>
  401ff1:	0f b6 d0             	movzbl %al,%edx
  401ff4:	be b8 3b 40 00       	mov    $0x403bb8,%esi
  401ff9:	48 8d 7c 24 08       	lea    0x8(%rsp),%rdi
  401ffe:	b8 00 00 00 00       	mov    $0x0,%eax
  402003:	e8 98 ed ff ff       	callq  400da0 <sprintf@plt>
  402008:	0f b6 44 24 08       	movzbl 0x8(%rsp),%eax
  40200d:	88 45 00             	mov    %al,0x0(%rbp)
  402010:	0f b6 44 24 09       	movzbl 0x9(%rsp),%eax
  402015:	88 45 01             	mov    %al,0x1(%rbp)
  402018:	0f b6 44 24 0a       	movzbl 0xa(%rsp),%eax
  40201d:	88 45 02             	mov    %al,0x2(%rbp)
  402020:	48 8d 6d 03          	lea    0x3(%rbp),%rbp
  402024:	e9 6e ff ff ff       	jmpq   401f97 <urlencode+0x2e>
  402029:	c6 45 00 2b          	movb   $0x2b,0x0(%rbp)
  40202d:	48 8d 6d 01          	lea    0x1(%rbp),%rbp
  402031:	e9 61 ff ff ff       	jmpq   401f97 <urlencode+0x2e>
  402036:	b8 ff ff ff ff       	mov    $0xffffffff,%eax
  40203b:	48 83 c4 10          	add    $0x10,%rsp
  40203f:	5b                   	pop    %rbx
  402040:	5d                   	pop    %rbp
  402041:	41 5c                	pop    %r12
  402043:	c3                   	retq   

0000000000402044 <rio_writen>:
  402044:	41 55                	push   %r13
  402046:	41 54                	push   %r12
  402048:	55                   	push   %rbp
  402049:	53                   	push   %rbx
  40204a:	48 83 ec 08          	sub    $0x8,%rsp
  40204e:	41 89 fc             	mov    %edi,%r12d
  402051:	48 89 f5             	mov    %rsi,%rbp
  402054:	49 89 d5             	mov    %rdx,%r13
  402057:	48 89 d3             	mov    %rdx,%rbx
  40205a:	eb 06                	jmp    402062 <rio_writen+0x1e>
  40205c:	48 29 c3             	sub    %rax,%rbx
  40205f:	48 01 c5             	add    %rax,%rbp
  402062:	48 85 db             	test   %rbx,%rbx
  402065:	74 24                	je     40208b <rio_writen+0x47>
  402067:	48 89 da             	mov    %rbx,%rdx
  40206a:	48 89 ee             	mov    %rbp,%rsi
  40206d:	44 89 e7             	mov    %r12d,%edi
  402070:	e8 cb eb ff ff       	callq  400c40 <write@plt>
  402075:	48 85 c0             	test   %rax,%rax
  402078:	7f e2                	jg     40205c <rio_writen+0x18>
  40207a:	e8 71 eb ff ff       	callq  400bf0 <__errno_location@plt>
  40207f:	83 38 04             	cmpl   $0x4,(%rax)
  402082:	75 15                	jne    402099 <rio_writen+0x55>
  402084:	b8 00 00 00 00       	mov    $0x0,%eax
  402089:	eb d1                	jmp    40205c <rio_writen+0x18>
  40208b:	4c 89 e8             	mov    %r13,%rax
  40208e:	48 83 c4 08          	add    $0x8,%rsp
  402092:	5b                   	pop    %rbx
  402093:	5d                   	pop    %rbp
  402094:	41 5c                	pop    %r12
  402096:	41 5d                	pop    %r13
  402098:	c3                   	retq   
  402099:	48 c7 c0 ff ff ff ff 	mov    $0xffffffffffffffff,%rax
  4020a0:	eb ec                	jmp    40208e <rio_writen+0x4a>

00000000004020a2 <rio_read>:
  4020a2:	41 55                	push   %r13
  4020a4:	41 54                	push   %r12
  4020a6:	55                   	push   %rbp
  4020a7:	53                   	push   %rbx
  4020a8:	48 83 ec 08          	sub    $0x8,%rsp
  4020ac:	48 89 fb             	mov    %rdi,%rbx
  4020af:	49 89 f5             	mov    %rsi,%r13
  4020b2:	49 89 d4             	mov    %rdx,%r12
  4020b5:	eb 0a                	jmp    4020c1 <rio_read+0x1f>
  4020b7:	e8 34 eb ff ff       	callq  400bf0 <__errno_location@plt>
  4020bc:	83 38 04             	cmpl   $0x4,(%rax)
  4020bf:	75 5c                	jne    40211d <rio_read+0x7b>
  4020c1:	8b 6b 04             	mov    0x4(%rbx),%ebp
  4020c4:	85 ed                	test   %ebp,%ebp
  4020c6:	7f 24                	jg     4020ec <rio_read+0x4a>
  4020c8:	48 8d 6b 10          	lea    0x10(%rbx),%rbp
  4020cc:	ba 00 20 00 00       	mov    $0x2000,%edx
  4020d1:	48 89 ee             	mov    %rbp,%rsi
  4020d4:	8b 3b                	mov    (%rbx),%edi
  4020d6:	e8 c5 eb ff ff       	callq  400ca0 <read@plt>
  4020db:	89 43 04             	mov    %eax,0x4(%rbx)
  4020de:	85 c0                	test   %eax,%eax
  4020e0:	78 d5                	js     4020b7 <rio_read+0x15>
  4020e2:	85 c0                	test   %eax,%eax
  4020e4:	74 40                	je     402126 <rio_read+0x84>
  4020e6:	48 89 6b 08          	mov    %rbp,0x8(%rbx)
  4020ea:	eb d5                	jmp    4020c1 <rio_read+0x1f>
  4020ec:	89 e8                	mov    %ebp,%eax
  4020ee:	4c 39 e0             	cmp    %r12,%rax
  4020f1:	72 03                	jb     4020f6 <rio_read+0x54>
  4020f3:	44 89 e5             	mov    %r12d,%ebp
  4020f6:	4c 63 e5             	movslq %ebp,%r12
  4020f9:	48 8b 73 08          	mov    0x8(%rbx),%rsi
  4020fd:	4c 89 e2             	mov    %r12,%rdx
  402100:	4c 89 ef             	mov    %r13,%rdi
  402103:	e8 e8 eb ff ff       	callq  400cf0 <memcpy@plt>
  402108:	4c 01 63 08          	add    %r12,0x8(%rbx)
  40210c:	29 6b 04             	sub    %ebp,0x4(%rbx)
  40210f:	4c 89 e0             	mov    %r12,%rax
  402112:	48 83 c4 08          	add    $0x8,%rsp
  402116:	5b                   	pop    %rbx
  402117:	5d                   	pop    %rbp
  402118:	41 5c                	pop    %r12
  40211a:	41 5d                	pop    %r13
  40211c:	c3                   	retq   
  40211d:	48 c7 c0 ff ff ff ff 	mov    $0xffffffffffffffff,%rax
  402124:	eb ec                	jmp    402112 <rio_read+0x70>
  402126:	b8 00 00 00 00       	mov    $0x0,%eax
  40212b:	eb e5                	jmp    402112 <rio_read+0x70>

000000000040212d <rio_readlineb>:
  40212d:	41 55                	push   %r13
  40212f:	41 54                	push   %r12
  402131:	55                   	push   %rbp
  402132:	53                   	push   %rbx
  402133:	48 83 ec 18          	sub    $0x18,%rsp
  402137:	49 89 fd             	mov    %rdi,%r13
  40213a:	48 89 f5             	mov    %rsi,%rbp
  40213d:	49 89 d4             	mov    %rdx,%r12
  402140:	bb 01 00 00 00       	mov    $0x1,%ebx
  402145:	4c 39 e3             	cmp    %r12,%rbx
  402148:	73 47                	jae    402191 <rio_readlineb+0x64>
  40214a:	ba 01 00 00 00       	mov    $0x1,%edx
  40214f:	48 8d 74 24 0f       	lea    0xf(%rsp),%rsi
  402154:	4c 89 ef             	mov    %r13,%rdi
  402157:	e8 46 ff ff ff       	callq  4020a2 <rio_read>
  40215c:	83 f8 01             	cmp    $0x1,%eax
  40215f:	75 1c                	jne    40217d <rio_readlineb+0x50>
  402161:	48 8d 45 01          	lea    0x1(%rbp),%rax
  402165:	0f b6 54 24 0f       	movzbl 0xf(%rsp),%edx
  40216a:	88 55 00             	mov    %dl,0x0(%rbp)
  40216d:	80 7c 24 0f 0a       	cmpb   $0xa,0xf(%rsp)
  402172:	74 1a                	je     40218e <rio_readlineb+0x61>
  402174:	48 83 c3 01          	add    $0x1,%rbx
  402178:	48 89 c5             	mov    %rax,%rbp
  40217b:	eb c8                	jmp    402145 <rio_readlineb+0x18>
  40217d:	85 c0                	test   %eax,%eax
  40217f:	75 22                	jne    4021a3 <rio_readlineb+0x76>
  402181:	48 83 fb 01          	cmp    $0x1,%rbx
  402185:	75 0a                	jne    402191 <rio_readlineb+0x64>
  402187:	b8 00 00 00 00       	mov    $0x0,%eax
  40218c:	eb 0a                	jmp    402198 <rio_readlineb+0x6b>
  40218e:	48 89 c5             	mov    %rax,%rbp
  402191:	c6 45 00 00          	movb   $0x0,0x0(%rbp)
  402195:	48 89 d8             	mov    %rbx,%rax
  402198:	48 83 c4 18          	add    $0x18,%rsp
  40219c:	5b                   	pop    %rbx
  40219d:	5d                   	pop    %rbp
  40219e:	41 5c                	pop    %r12
  4021a0:	41 5d                	pop    %r13
  4021a2:	c3                   	retq   
  4021a3:	48 c7 c0 ff ff ff ff 	mov    $0xffffffffffffffff,%rax
  4021aa:	eb ec                	jmp    402198 <rio_readlineb+0x6b>

00000000004021ac <submitr>:
  4021ac:	41 57                	push   %r15
  4021ae:	41 56                	push   %r14
  4021b0:	41 55                	push   %r13
  4021b2:	41 54                	push   %r12
  4021b4:	55                   	push   %rbp
  4021b5:	53                   	push   %rbx
  4021b6:	48 81 ec 48 a0 00 00 	sub    $0xa048,%rsp
  4021bd:	49 89 fc             	mov    %rdi,%r12
  4021c0:	89 74 24 04          	mov    %esi,0x4(%rsp)
  4021c4:	49 89 d7             	mov    %rdx,%r15
  4021c7:	49 89 ce             	mov    %rcx,%r14
  4021ca:	4c 89 44 24 08       	mov    %r8,0x8(%rsp)
  4021cf:	4d 89 cd             	mov    %r9,%r13
  4021d2:	48 8b ac 24 80 a0 00 	mov    0xa080(%rsp),%rbp
  4021d9:	00 
  4021da:	c7 84 24 1c 20 00 00 	movl   $0x0,0x201c(%rsp)
  4021e1:	00 00 00 00 
  4021e5:	ba 00 00 00 00       	mov    $0x0,%edx
  4021ea:	be 01 00 00 00       	mov    $0x1,%esi
  4021ef:	bf 02 00 00 00       	mov    $0x2,%edi
  4021f4:	e8 d7 eb ff ff       	callq  400dd0 <socket@plt>
  4021f9:	85 c0                	test   %eax,%eax
  4021fb:	0f 88 86 02 00 00    	js     402487 <submitr+0x2db>
  402201:	89 c3                	mov    %eax,%ebx
  402203:	4c 89 e7             	mov    %r12,%rdi
  402206:	e8 b5 ea ff ff       	callq  400cc0 <gethostbyname@plt>
  40220b:	48 85 c0             	test   %rax,%rax
  40220e:	0f 84 bf 02 00 00    	je     4024d3 <submitr+0x327>
  402214:	48 c7 84 24 30 a0 00 	movq   $0x0,0xa030(%rsp)
  40221b:	00 00 00 00 00 
  402220:	48 c7 84 24 38 a0 00 	movq   $0x0,0xa038(%rsp)
  402227:	00 00 00 00 00 
  40222c:	66 c7 84 24 30 a0 00 	movw   $0x2,0xa030(%rsp)
  402233:	00 02 00 
  402236:	48 8b 48 18          	mov    0x18(%rax),%rcx
  40223a:	48 63 50 14          	movslq 0x14(%rax),%rdx
  40223e:	48 8d b4 24 34 a0 00 	lea    0xa034(%rsp),%rsi
  402245:	00 
  402246:	48 8b 39             	mov    (%rcx),%rdi
  402249:	e8 02 eb ff ff       	callq  400d50 <bcopy@plt>
  40224e:	0f b7 44 24 04       	movzwl 0x4(%rsp),%eax
  402253:	66 c1 c8 08          	ror    $0x8,%ax
  402257:	66 89 84 24 32 a0 00 	mov    %ax,0xa032(%rsp)
  40225e:	00 
  40225f:	ba 10 00 00 00       	mov    $0x10,%edx
  402264:	48 8d b4 24 30 a0 00 	lea    0xa030(%rsp),%rsi
  40226b:	00 
  40226c:	89 df                	mov    %ebx,%edi
  40226e:	e8 4d eb ff ff       	callq  400dc0 <connect@plt>
  402273:	85 c0                	test   %eax,%eax
  402275:	0f 88 c0 02 00 00    	js     40253b <submitr+0x38f>
  40227b:	48 c7 c6 ff ff ff ff 	mov    $0xffffffffffffffff,%rsi
  402282:	b8 00 00 00 00       	mov    $0x0,%eax
  402287:	48 89 f1             	mov    %rsi,%rcx
  40228a:	4c 89 ef             	mov    %r13,%rdi
  40228d:	f2 ae                	repnz scas %es:(%rdi),%al
  40228f:	48 89 ca             	mov    %rcx,%rdx
  402292:	48 f7 d2             	not    %rdx
  402295:	48 89 f1             	mov    %rsi,%rcx
  402298:	4c 89 ff             	mov    %r15,%rdi
  40229b:	f2 ae                	repnz scas %es:(%rdi),%al
  40229d:	48 f7 d1             	not    %rcx
  4022a0:	49 89 c8             	mov    %rcx,%r8
  4022a3:	48 89 f1             	mov    %rsi,%rcx
  4022a6:	4c 89 f7             	mov    %r14,%rdi
  4022a9:	f2 ae                	repnz scas %es:(%rdi),%al
  4022ab:	48 f7 d1             	not    %rcx
  4022ae:	4d 8d 44 08 fe       	lea    -0x2(%r8,%rcx,1),%r8
  4022b3:	48 89 f1             	mov    %rsi,%rcx
  4022b6:	48 8b 7c 24 08       	mov    0x8(%rsp),%rdi
  4022bb:	f2 ae                	repnz scas %es:(%rdi),%al
  4022bd:	48 89 c8             	mov    %rcx,%rax
  4022c0:	48 f7 d0             	not    %rax
  4022c3:	49 8d 4c 00 ff       	lea    -0x1(%r8,%rax,1),%rcx
  4022c8:	48 8d 44 52 fd       	lea    -0x3(%rdx,%rdx,2),%rax
  4022cd:	48 8d 84 01 80 00 00 	lea    0x80(%rcx,%rax,1),%rax
  4022d4:	00 
  4022d5:	48 3d 00 20 00 00    	cmp    $0x2000,%rax
  4022db:	0f 87 b4 02 00 00    	ja     402595 <submitr+0x3e9>
  4022e1:	48 8d b4 24 20 40 00 	lea    0x4020(%rsp),%rsi
  4022e8:	00 
  4022e9:	b9 00 04 00 00       	mov    $0x400,%ecx
  4022ee:	b8 00 00 00 00       	mov    $0x0,%eax
  4022f3:	48 89 f7             	mov    %rsi,%rdi
  4022f6:	f3 48 ab             	rep stos %rax,%es:(%rdi)
  4022f9:	4c 89 ef             	mov    %r13,%rdi
  4022fc:	e8 68 fc ff ff       	callq  401f69 <urlencode>
  402301:	85 c0                	test   %eax,%eax
  402303:	0f 88 ff 02 00 00    	js     402608 <submitr+0x45c>
  402309:	4c 8d ac 24 20 60 00 	lea    0x6020(%rsp),%r13
  402310:	00 
  402311:	4d 89 e1             	mov    %r12,%r9
  402314:	4c 8d 84 24 20 40 00 	lea    0x4020(%rsp),%r8
  40231b:	00 
  40231c:	4c 89 f9             	mov    %r15,%rcx
  40231f:	4c 89 f2             	mov    %r14,%rdx
  402322:	be 48 3b 40 00       	mov    $0x403b48,%esi
  402327:	4c 89 ef             	mov    %r13,%rdi
  40232a:	b8 00 00 00 00       	mov    $0x0,%eax
  40232f:	e8 6c ea ff ff       	callq  400da0 <sprintf@plt>
  402334:	48 c7 c1 ff ff ff ff 	mov    $0xffffffffffffffff,%rcx
  40233b:	b8 00 00 00 00       	mov    $0x0,%eax
  402340:	4c 89 ef             	mov    %r13,%rdi
  402343:	f2 ae                	repnz scas %es:(%rdi),%al
  402345:	48 89 ca             	mov    %rcx,%rdx
  402348:	48 f7 d2             	not    %rdx
  40234b:	48 8d 52 ff          	lea    -0x1(%rdx),%rdx
  40234f:	4c 89 ee             	mov    %r13,%rsi
  402352:	89 df                	mov    %ebx,%edi
  402354:	e8 eb fc ff ff       	callq  402044 <rio_writen>
  402359:	48 85 c0             	test   %rax,%rax
  40235c:	0f 88 31 03 00 00    	js     402693 <submitr+0x4e7>
  402362:	89 de                	mov    %ebx,%esi
  402364:	48 8d bc 24 20 80 00 	lea    0x8020(%rsp),%rdi
  40236b:	00 
  40236c:	e8 bd fb ff ff       	callq  401f2e <rio_readinitb>
  402371:	ba 00 20 00 00       	mov    $0x2000,%edx
  402376:	48 8d b4 24 20 60 00 	lea    0x6020(%rsp),%rsi
  40237d:	00 
  40237e:	48 8d bc 24 20 80 00 	lea    0x8020(%rsp),%rdi
  402385:	00 
  402386:	e8 a2 fd ff ff       	callq  40212d <rio_readlineb>
  40238b:	48 85 c0             	test   %rax,%rax
  40238e:	0f 8e 6e 03 00 00    	jle    402702 <submitr+0x556>
  402394:	4c 8d 44 24 10       	lea    0x10(%rsp),%r8
  402399:	48 8d 8c 24 1c 20 00 	lea    0x201c(%rsp),%rcx
  4023a0:	00 
  4023a1:	48 8d 94 24 20 20 00 	lea    0x2020(%rsp),%rdx
  4023a8:	00 
  4023a9:	be bf 3b 40 00       	mov    $0x403bbf,%esi
  4023ae:	48 8d bc 24 20 60 00 	lea    0x6020(%rsp),%rdi
  4023b5:	00 
  4023b6:	b8 00 00 00 00       	mov    $0x0,%eax
  4023bb:	e8 70 e9 ff ff       	callq  400d30 <__isoc99_sscanf@plt>
  4023c0:	48 8d b4 24 20 60 00 	lea    0x6020(%rsp),%rsi
  4023c7:	00 
  4023c8:	bf d6 3b 40 00       	mov    $0x403bd6,%edi
  4023cd:	b9 03 00 00 00       	mov    $0x3,%ecx
  4023d2:	f3 a6                	repz cmpsb %es:(%rdi),%ds:(%rsi)
  4023d4:	0f 97 c0             	seta   %al
  4023d7:	1c 00                	sbb    $0x0,%al
  4023d9:	84 c0                	test   %al,%al
  4023db:	0f 84 9f 03 00 00    	je     402780 <submitr+0x5d4>
  4023e1:	ba 00 20 00 00       	mov    $0x2000,%edx
  4023e6:	48 8d b4 24 20 60 00 	lea    0x6020(%rsp),%rsi
  4023ed:	00 
  4023ee:	48 8d bc 24 20 80 00 	lea    0x8020(%rsp),%rdi
  4023f5:	00 
  4023f6:	e8 32 fd ff ff       	callq  40212d <rio_readlineb>
  4023fb:	48 85 c0             	test   %rax,%rax
  4023fe:	7f c0                	jg     4023c0 <submitr+0x214>
  402400:	48 b8 45 72 72 6f 72 	movabs $0x43203a726f727245,%rax
  402407:	3a 20 43 
  40240a:	48 ba 6c 69 65 6e 74 	movabs $0x6e7520746e65696c,%rdx
  402411:	20 75 6e 
  402414:	48 89 45 00          	mov    %rax,0x0(%rbp)
  402418:	48 89 55 08          	mov    %rdx,0x8(%rbp)
  40241c:	48 b8 61 62 6c 65 20 	movabs $0x206f7420656c6261,%rax
  402423:	74 6f 20 
  402426:	48 ba 72 65 61 64 20 	movabs $0x6165682064616572,%rdx
  40242d:	68 65 61 
  402430:	48 89 45 10          	mov    %rax,0x10(%rbp)
  402434:	48 89 55 18          	mov    %rdx,0x18(%rbp)
  402438:	48 b8 64 65 72 73 20 	movabs $0x6f72662073726564,%rax
  40243f:	66 72 6f 
  402442:	48 ba 6d 20 74 68 65 	movabs $0x657220656874206d,%rdx
  402449:	20 72 65 
  40244c:	48 89 45 20          	mov    %rax,0x20(%rbp)
  402450:	48 89 55 28          	mov    %rdx,0x28(%rbp)
  402454:	48 b8 73 75 6c 74 20 	movabs $0x72657320746c7573,%rax
  40245b:	73 65 72 
  40245e:	48 89 45 30          	mov    %rax,0x30(%rbp)
  402462:	c7 45 38 76 65 72 00 	movl   $0x726576,0x38(%rbp)
  402469:	89 df                	mov    %ebx,%edi
  40246b:	e8 20 e8 ff ff       	callq  400c90 <close@plt>
  402470:	b8 ff ff ff ff       	mov    $0xffffffff,%eax
  402475:	48 81 c4 48 a0 00 00 	add    $0xa048,%rsp
  40247c:	5b                   	pop    %rbx
  40247d:	5d                   	pop    %rbp
  40247e:	41 5c                	pop    %r12
  402480:	41 5d                	pop    %r13
  402482:	41 5e                	pop    %r14
  402484:	41 5f                	pop    %r15
  402486:	c3                   	retq   
  402487:	48 b8 45 72 72 6f 72 	movabs $0x43203a726f727245,%rax
  40248e:	3a 20 43 
  402491:	48 ba 6c 69 65 6e 74 	movabs $0x6e7520746e65696c,%rdx
  402498:	20 75 6e 
  40249b:	48 89 45 00          	mov    %rax,0x0(%rbp)
  40249f:	48 89 55 08          	mov    %rdx,0x8(%rbp)
  4024a3:	48 b8 61 62 6c 65 20 	movabs $0x206f7420656c6261,%rax
  4024aa:	74 6f 20 
  4024ad:	48 ba 63 72 65 61 74 	movabs $0x7320657461657263,%rdx
  4024b4:	65 20 73 
  4024b7:	48 89 45 10          	mov    %rax,0x10(%rbp)
  4024bb:	48 89 55 18          	mov    %rdx,0x18(%rbp)
  4024bf:	c7 45 20 6f 63 6b 65 	movl   $0x656b636f,0x20(%rbp)
  4024c6:	66 c7 45 24 74 00    	movw   $0x74,0x24(%rbp)
  4024cc:	b8 ff ff ff ff       	mov    $0xffffffff,%eax
  4024d1:	eb a2                	jmp    402475 <submitr+0x2c9>
  4024d3:	48 b8 45 72 72 6f 72 	movabs $0x44203a726f727245,%rax
  4024da:	3a 20 44 
  4024dd:	48 ba 4e 53 20 69 73 	movabs $0x6e7520736920534e,%rdx
  4024e4:	20 75 6e 
  4024e7:	48 89 45 00          	mov    %rax,0x0(%rbp)
  4024eb:	48 89 55 08          	mov    %rdx,0x8(%rbp)
  4024ef:	48 b8 61 62 6c 65 20 	movabs $0x206f7420656c6261,%rax
  4024f6:	74 6f 20 
  4024f9:	48 ba 72 65 73 6f 6c 	movabs $0x2065766c6f736572,%rdx
  402500:	76 65 20 
  402503:	48 89 45 10          	mov    %rax,0x10(%rbp)
  402507:	48 89 55 18          	mov    %rdx,0x18(%rbp)
  40250b:	48 b8 73 65 72 76 65 	movabs $0x6120726576726573,%rax
  402512:	72 20 61 
  402515:	48 89 45 20          	mov    %rax,0x20(%rbp)
  402519:	c7 45 28 64 64 72 65 	movl   $0x65726464,0x28(%rbp)
  402520:	66 c7 45 2c 73 73    	movw   $0x7373,0x2c(%rbp)
  402526:	c6 45 2e 00          	movb   $0x0,0x2e(%rbp)
  40252a:	89 df                	mov    %ebx,%edi
  40252c:	e8 5f e7 ff ff       	callq  400c90 <close@plt>
  402531:	b8 ff ff ff ff       	mov    $0xffffffff,%eax
  402536:	e9 3a ff ff ff       	jmpq   402475 <submitr+0x2c9>
  40253b:	48 b8 45 72 72 6f 72 	movabs $0x55203a726f727245,%rax
  402542:	3a 20 55 
  402545:	48 ba 6e 61 62 6c 65 	movabs $0x6f7420656c62616e,%rdx
  40254c:	20 74 6f 
  40254f:	48 89 45 00          	mov    %rax,0x0(%rbp)
  402553:	48 89 55 08          	mov    %rdx,0x8(%rbp)
  402557:	48 b8 20 63 6f 6e 6e 	movabs $0x7463656e6e6f6320,%rax
  40255e:	65 63 74 
  402561:	48 ba 20 74 6f 20 74 	movabs $0x20656874206f7420,%rdx
  402568:	68 65 20 
  40256b:	48 89 45 10          	mov    %rax,0x10(%rbp)
  40256f:	48 89 55 18          	mov    %rdx,0x18(%rbp)
  402573:	c7 45 20 73 65 72 76 	movl   $0x76726573,0x20(%rbp)
  40257a:	66 c7 45 24 65 72    	movw   $0x7265,0x24(%rbp)
  402580:	c6 45 26 00          	movb   $0x0,0x26(%rbp)
  402584:	89 df                	mov    %ebx,%edi
  402586:	e8 05 e7 ff ff       	callq  400c90 <close@plt>
  40258b:	b8 ff ff ff ff       	mov    $0xffffffff,%eax
  402590:	e9 e0 fe ff ff       	jmpq   402475 <submitr+0x2c9>
  402595:	48 b8 45 72 72 6f 72 	movabs $0x52203a726f727245,%rax
  40259c:	3a 20 52 
  40259f:	48 ba 65 73 75 6c 74 	movabs $0x747320746c757365,%rdx
  4025a6:	20 73 74 
  4025a9:	48 89 45 00          	mov    %rax,0x0(%rbp)
  4025ad:	48 89 55 08          	mov    %rdx,0x8(%rbp)
  4025b1:	48 b8 72 69 6e 67 20 	movabs $0x6f6f7420676e6972,%rax
  4025b8:	74 6f 6f 
  4025bb:	48 ba 20 6c 61 72 67 	movabs $0x202e656772616c20,%rdx
  4025c2:	65 2e 20 
  4025c5:	48 89 45 10          	mov    %rax,0x10(%rbp)
  4025c9:	48 89 55 18          	mov    %rdx,0x18(%rbp)
  4025cd:	48 b8 49 6e 63 72 65 	movabs $0x6573616572636e49,%rax
  4025d4:	61 73 65 
  4025d7:	48 ba 20 53 55 42 4d 	movabs $0x5254494d42555320,%rdx
  4025de:	49 54 52 
  4025e1:	48 89 45 20          	mov    %rax,0x20(%rbp)
  4025e5:	48 89 55 28          	mov    %rdx,0x28(%rbp)
  4025e9:	48 b8 5f 4d 41 58 42 	movabs $0x46554258414d5f,%rax
  4025f0:	55 46 00 
  4025f3:	48 89 45 30          	mov    %rax,0x30(%rbp)
  4025f7:	89 df                	mov    %ebx,%edi
  4025f9:	e8 92 e6 ff ff       	callq  400c90 <close@plt>
  4025fe:	b8 ff ff ff ff       	mov    $0xffffffff,%eax
  402603:	e9 6d fe ff ff       	jmpq   402475 <submitr+0x2c9>
  402608:	48 b8 45 72 72 6f 72 	movabs $0x52203a726f727245,%rax
  40260f:	3a 20 52 
  402612:	48 ba 65 73 75 6c 74 	movabs $0x747320746c757365,%rdx
  402619:	20 73 74 
  40261c:	48 89 45 00          	mov    %rax,0x0(%rbp)
  402620:	48 89 55 08          	mov    %rdx,0x8(%rbp)
  402624:	48 b8 72 69 6e 67 20 	movabs $0x6e6f6320676e6972,%rax
  40262b:	63 6f 6e 
  40262e:	48 ba 74 61 69 6e 73 	movabs $0x6e6120736e696174,%rdx
  402635:	20 61 6e 
  402638:	48 89 45 10          	mov    %rax,0x10(%rbp)
  40263c:	48 89 55 18          	mov    %rdx,0x18(%rbp)
  402640:	48 b8 20 69 6c 6c 65 	movabs $0x6c6167656c6c6920,%rax
  402647:	67 61 6c 
  40264a:	48 ba 20 6f 72 20 75 	movabs $0x72706e7520726f20,%rdx
  402651:	6e 70 72 
  402654:	48 89 45 20          	mov    %rax,0x20(%rbp)
  402658:	48 89 55 28          	mov    %rdx,0x28(%rbp)
  40265c:	48 b8 69 6e 74 61 62 	movabs $0x20656c6261746e69,%rax
  402663:	6c 65 20 
  402666:	48 ba 63 68 61 72 61 	movabs $0x6574636172616863,%rdx
  40266d:	63 74 65 
  402670:	48 89 45 30          	mov    %rax,0x30(%rbp)
  402674:	48 89 55 38          	mov    %rdx,0x38(%rbp)
  402678:	66 c7 45 40 72 2e    	movw   $0x2e72,0x40(%rbp)
  40267e:	c6 45 42 00          	movb   $0x0,0x42(%rbp)
  402682:	89 df                	mov    %ebx,%edi
  402684:	e8 07 e6 ff ff       	callq  400c90 <close@plt>
  402689:	b8 ff ff ff ff       	mov    $0xffffffff,%eax
  40268e:	e9 e2 fd ff ff       	jmpq   402475 <submitr+0x2c9>
  402693:	48 b8 45 72 72 6f 72 	movabs $0x43203a726f727245,%rax
  40269a:	3a 20 43 
  40269d:	48 ba 6c 69 65 6e 74 	movabs $0x6e7520746e65696c,%rdx
  4026a4:	20 75 6e 
  4026a7:	48 89 45 00          	mov    %rax,0x0(%rbp)
  4026ab:	48 89 55 08          	mov    %rdx,0x8(%rbp)
  4026af:	48 b8 61 62 6c 65 20 	movabs $0x206f7420656c6261,%rax
  4026b6:	74 6f 20 
  4026b9:	48 ba 77 72 69 74 65 	movabs $0x6f74206574697277,%rdx
  4026c0:	20 74 6f 
  4026c3:	48 89 45 10          	mov    %rax,0x10(%rbp)
  4026c7:	48 89 55 18          	mov    %rdx,0x18(%rbp)
  4026cb:	48 b8 20 74 68 65 20 	movabs $0x7365722065687420,%rax
  4026d2:	72 65 73 
  4026d5:	48 ba 75 6c 74 20 73 	movabs $0x7672657320746c75,%rdx
  4026dc:	65 72 76 
  4026df:	48 89 45 20          	mov    %rax,0x20(%rbp)
  4026e3:	48 89 55 28          	mov    %rdx,0x28(%rbp)
  4026e7:	66 c7 45 30 65 72    	movw   $0x7265,0x30(%rbp)
  4026ed:	c6 45 32 00          	movb   $0x0,0x32(%rbp)
  4026f1:	89 df                	mov    %ebx,%edi
  4026f3:	e8 98 e5 ff ff       	callq  400c90 <close@plt>
  4026f8:	b8 ff ff ff ff       	mov    $0xffffffff,%eax
  4026fd:	e9 73 fd ff ff       	jmpq   402475 <submitr+0x2c9>
  402702:	48 b8 45 72 72 6f 72 	movabs $0x43203a726f727245,%rax
  402709:	3a 20 43 
  40270c:	48 ba 6c 69 65 6e 74 	movabs $0x6e7520746e65696c,%rdx
  402713:	20 75 6e 
  402716:	48 89 45 00          	mov    %rax,0x0(%rbp)
  40271a:	48 89 55 08          	mov    %rdx,0x8(%rbp)
  40271e:	48 b8 61 62 6c 65 20 	movabs $0x206f7420656c6261,%rax
  402725:	74 6f 20 
  402728:	48 ba 72 65 61 64 20 	movabs $0x7269662064616572,%rdx
  40272f:	66 69 72 
  402732:	48 89 45 10          	mov    %rax,0x10(%rbp)
  402736:	48 89 55 18          	mov    %rdx,0x18(%rbp)
  40273a:	48 b8 73 74 20 68 65 	movabs $0x6564616568207473,%rax
  402741:	61 64 65 
  402744:	48 ba 72 20 66 72 6f 	movabs $0x72206d6f72662072,%rdx
  40274b:	6d 20 72 
  40274e:	48 89 45 20          	mov    %rax,0x20(%rbp)
  402752:	48 89 55 28          	mov    %rdx,0x28(%rbp)
  402756:	48 b8 65 73 75 6c 74 	movabs $0x657320746c757365,%rax
  40275d:	20 73 65 
  402760:	48 89 45 30          	mov    %rax,0x30(%rbp)
  402764:	c7 45 38 72 76 65 72 	movl   $0x72657672,0x38(%rbp)
  40276b:	c6 45 3c 00          	movb   $0x0,0x3c(%rbp)
  40276f:	89 df                	mov    %ebx,%edi
  402771:	e8 1a e5 ff ff       	callq  400c90 <close@plt>
  402776:	b8 ff ff ff ff       	mov    $0xffffffff,%eax
  40277b:	e9 f5 fc ff ff       	jmpq   402475 <submitr+0x2c9>
  402780:	ba 00 20 00 00       	mov    $0x2000,%edx
  402785:	48 8d b4 24 20 60 00 	lea    0x6020(%rsp),%rsi
  40278c:	00 
  40278d:	48 8d bc 24 20 80 00 	lea    0x8020(%rsp),%rdi
  402794:	00 
  402795:	e8 93 f9 ff ff       	callq  40212d <rio_readlineb>
  40279a:	48 85 c0             	test   %rax,%rax
  40279d:	0f 8e 91 00 00 00    	jle    402834 <submitr+0x688>
  4027a3:	8b 94 24 1c 20 00 00 	mov    0x201c(%rsp),%edx
  4027aa:	81 fa c8 00 00 00    	cmp    $0xc8,%edx
  4027b0:	0f 85 02 01 00 00    	jne    4028b8 <submitr+0x70c>
  4027b6:	48 8d b4 24 20 60 00 	lea    0x6020(%rsp),%rsi
  4027bd:	00 
  4027be:	48 89 ef             	mov    %rbp,%rdi
  4027c1:	e8 5a e4 ff ff       	callq  400c20 <strcpy@plt>
  4027c6:	89 df                	mov    %ebx,%edi
  4027c8:	e8 c3 e4 ff ff       	callq  400c90 <close@plt>
  4027cd:	bf d0 3b 40 00       	mov    $0x403bd0,%edi
  4027d2:	b9 04 00 00 00       	mov    $0x4,%ecx
  4027d7:	48 89 ee             	mov    %rbp,%rsi
  4027da:	f3 a6                	repz cmpsb %es:(%rdi),%ds:(%rsi)
  4027dc:	0f 97 c0             	seta   %al
  4027df:	1c 00                	sbb    $0x0,%al
  4027e1:	0f be c0             	movsbl %al,%eax
  4027e4:	85 c0                	test   %eax,%eax
  4027e6:	0f 84 89 fc ff ff    	je     402475 <submitr+0x2c9>
  4027ec:	bf d4 3b 40 00       	mov    $0x403bd4,%edi
  4027f1:	b9 05 00 00 00       	mov    $0x5,%ecx
  4027f6:	48 89 ee             	mov    %rbp,%rsi
  4027f9:	f3 a6                	repz cmpsb %es:(%rdi),%ds:(%rsi)
  4027fb:	0f 97 c0             	seta   %al
  4027fe:	1c 00                	sbb    $0x0,%al
  402800:	0f be c0             	movsbl %al,%eax
  402803:	85 c0                	test   %eax,%eax
  402805:	0f 84 6a fc ff ff    	je     402475 <submitr+0x2c9>
  40280b:	bf d9 3b 40 00       	mov    $0x403bd9,%edi
  402810:	b9 03 00 00 00       	mov    $0x3,%ecx
  402815:	48 89 ee             	mov    %rbp,%rsi
  402818:	f3 a6                	repz cmpsb %es:(%rdi),%ds:(%rsi)
  40281a:	0f 97 c0             	seta   %al
  40281d:	1c 00                	sbb    $0x0,%al
  40281f:	0f be c0             	movsbl %al,%eax
  402822:	85 c0                	test   %eax,%eax
  402824:	0f 84 4b fc ff ff    	je     402475 <submitr+0x2c9>
  40282a:	b8 ff ff ff ff       	mov    $0xffffffff,%eax
  40282f:	e9 41 fc ff ff       	jmpq   402475 <submitr+0x2c9>
  402834:	48 b8 45 72 72 6f 72 	movabs $0x43203a726f727245,%rax
  40283b:	3a 20 43 
  40283e:	48 ba 6c 69 65 6e 74 	movabs $0x6e7520746e65696c,%rdx
  402845:	20 75 6e 
  402848:	48 89 45 00          	mov    %rax,0x0(%rbp)
  40284c:	48 89 55 08          	mov    %rdx,0x8(%rbp)
  402850:	48 b8 61 62 6c 65 20 	movabs $0x206f7420656c6261,%rax
  402857:	74 6f 20 
  40285a:	48 ba 72 65 61 64 20 	movabs $0x6174732064616572,%rdx
  402861:	73 74 61 
  402864:	48 89 45 10          	mov    %rax,0x10(%rbp)
  402868:	48 89 55 18          	mov    %rdx,0x18(%rbp)
  40286c:	48 b8 74 75 73 20 6d 	movabs $0x7373656d20737574,%rax
  402873:	65 73 73 
  402876:	48 ba 61 67 65 20 66 	movabs $0x6d6f726620656761,%rdx
  40287d:	72 6f 6d 
  402880:	48 89 45 20          	mov    %rax,0x20(%rbp)
  402884:	48 89 55 28          	mov    %rdx,0x28(%rbp)
  402888:	48 b8 20 72 65 73 75 	movabs $0x20746c7573657220,%rax
  40288f:	6c 74 20 
  402892:	48 89 45 30          	mov    %rax,0x30(%rbp)
  402896:	c7 45 38 73 65 72 76 	movl   $0x76726573,0x38(%rbp)
  40289d:	66 c7 45 3c 65 72    	movw   $0x7265,0x3c(%rbp)
  4028a3:	c6 45 3e 00          	movb   $0x0,0x3e(%rbp)
  4028a7:	89 df                	mov    %ebx,%edi
  4028a9:	e8 e2 e3 ff ff       	callq  400c90 <close@plt>
  4028ae:	b8 ff ff ff ff       	mov    $0xffffffff,%eax
  4028b3:	e9 bd fb ff ff       	jmpq   402475 <submitr+0x2c9>
  4028b8:	48 8d 4c 24 10       	lea    0x10(%rsp),%rcx
  4028bd:	be 88 3b 40 00       	mov    $0x403b88,%esi
  4028c2:	48 89 ef             	mov    %rbp,%rdi
  4028c5:	b8 00 00 00 00       	mov    $0x0,%eax
  4028ca:	e8 d1 e4 ff ff       	callq  400da0 <sprintf@plt>
  4028cf:	89 df                	mov    %ebx,%edi
  4028d1:	e8 ba e3 ff ff       	callq  400c90 <close@plt>
  4028d6:	b8 ff ff ff ff       	mov    $0xffffffff,%eax
  4028db:	e9 95 fb ff ff       	jmpq   402475 <submitr+0x2c9>

00000000004028e0 <init_timeout>:
  4028e0:	85 ff                	test   %edi,%edi
  4028e2:	74 26                	je     40290a <init_timeout+0x2a>
  4028e4:	53                   	push   %rbx
  4028e5:	89 fb                	mov    %edi,%ebx
  4028e7:	85 ff                	test   %edi,%edi
  4028e9:	78 18                	js     402903 <init_timeout+0x23>
  4028eb:	be 40 1f 40 00       	mov    $0x401f40,%esi
  4028f0:	bf 0e 00 00 00       	mov    $0xe,%edi
  4028f5:	e8 b6 e3 ff ff       	callq  400cb0 <signal@plt>
  4028fa:	89 df                	mov    %ebx,%edi
  4028fc:	e8 7f e3 ff ff       	callq  400c80 <alarm@plt>
  402901:	5b                   	pop    %rbx
  402902:	c3                   	retq   
  402903:	bb 00 00 00 00       	mov    $0x0,%ebx
  402908:	eb e1                	jmp    4028eb <init_timeout+0xb>
  40290a:	f3 c3                	repz retq 

000000000040290c <init_driver>:
  40290c:	55                   	push   %rbp
  40290d:	53                   	push   %rbx
  40290e:	48 83 ec 18          	sub    $0x18,%rsp
  402912:	48 89 fd             	mov    %rdi,%rbp
  402915:	be 01 00 00 00       	mov    $0x1,%esi
  40291a:	bf 0d 00 00 00       	mov    $0xd,%edi
  40291f:	e8 8c e3 ff ff       	callq  400cb0 <signal@plt>
  402924:	be 01 00 00 00       	mov    $0x1,%esi
  402929:	bf 1d 00 00 00       	mov    $0x1d,%edi
  40292e:	e8 7d e3 ff ff       	callq  400cb0 <signal@plt>
  402933:	be 01 00 00 00       	mov    $0x1,%esi
  402938:	bf 1d 00 00 00       	mov    $0x1d,%edi
  40293d:	e8 6e e3 ff ff       	callq  400cb0 <signal@plt>
  402942:	ba 00 00 00 00       	mov    $0x0,%edx
  402947:	be 01 00 00 00       	mov    $0x1,%esi
  40294c:	bf 02 00 00 00       	mov    $0x2,%edi
  402951:	e8 7a e4 ff ff       	callq  400dd0 <socket@plt>
  402956:	85 c0                	test   %eax,%eax
  402958:	78 7c                	js     4029d6 <init_driver+0xca>
  40295a:	89 c3                	mov    %eax,%ebx
  40295c:	bf 21 37 40 00       	mov    $0x403721,%edi
  402961:	e8 5a e3 ff ff       	callq  400cc0 <gethostbyname@plt>
  402966:	48 85 c0             	test   %rax,%rax
  402969:	0f 84 b3 00 00 00    	je     402a22 <init_driver+0x116>
  40296f:	48 c7 04 24 00 00 00 	movq   $0x0,(%rsp)
  402976:	00 
  402977:	48 c7 44 24 08 00 00 	movq   $0x0,0x8(%rsp)
  40297e:	00 00 
  402980:	66 c7 04 24 02 00    	movw   $0x2,(%rsp)
  402986:	48 8b 48 18          	mov    0x18(%rax),%rcx
  40298a:	48 63 50 14          	movslq 0x14(%rax),%rdx
  40298e:	48 8d 74 24 04       	lea    0x4(%rsp),%rsi
  402993:	48 8b 39             	mov    (%rcx),%rdi
  402996:	e8 b5 e3 ff ff       	callq  400d50 <bcopy@plt>
  40299b:	66 c7 44 24 02 4f ce 	movw   $0xce4f,0x2(%rsp)
  4029a2:	ba 10 00 00 00       	mov    $0x10,%edx
  4029a7:	48 89 e6             	mov    %rsp,%rsi
  4029aa:	89 df                	mov    %ebx,%edi
  4029ac:	e8 0f e4 ff ff       	callq  400dc0 <connect@plt>
  4029b1:	85 c0                	test   %eax,%eax
  4029b3:	0f 88 d1 00 00 00    	js     402a8a <init_driver+0x17e>
  4029b9:	89 df                	mov    %ebx,%edi
  4029bb:	e8 d0 e2 ff ff       	callq  400c90 <close@plt>
  4029c0:	66 c7 45 00 4f 4b    	movw   $0x4b4f,0x0(%rbp)
  4029c6:	c6 45 02 00          	movb   $0x0,0x2(%rbp)
  4029ca:	b8 00 00 00 00       	mov    $0x0,%eax
  4029cf:	48 83 c4 18          	add    $0x18,%rsp
  4029d3:	5b                   	pop    %rbx
  4029d4:	5d                   	pop    %rbp
  4029d5:	c3                   	retq   
  4029d6:	48 b8 45 72 72 6f 72 	movabs $0x43203a726f727245,%rax
  4029dd:	3a 20 43 
  4029e0:	48 ba 6c 69 65 6e 74 	movabs $0x6e7520746e65696c,%rdx
  4029e7:	20 75 6e 
  4029ea:	48 89 45 00          	mov    %rax,0x0(%rbp)
  4029ee:	48 89 55 08          	mov    %rdx,0x8(%rbp)
  4029f2:	48 b8 61 62 6c 65 20 	movabs $0x206f7420656c6261,%rax
  4029f9:	74 6f 20 
  4029fc:	48 ba 63 72 65 61 74 	movabs $0x7320657461657263,%rdx
  402a03:	65 20 73 
  402a06:	48 89 45 10          	mov    %rax,0x10(%rbp)
  402a0a:	48 89 55 18          	mov    %rdx,0x18(%rbp)
  402a0e:	c7 45 20 6f 63 6b 65 	movl   $0x656b636f,0x20(%rbp)
  402a15:	66 c7 45 24 74 00    	movw   $0x74,0x24(%rbp)
  402a1b:	b8 ff ff ff ff       	mov    $0xffffffff,%eax
  402a20:	eb ad                	jmp    4029cf <init_driver+0xc3>
  402a22:	48 b8 45 72 72 6f 72 	movabs $0x44203a726f727245,%rax
  402a29:	3a 20 44 
  402a2c:	48 ba 4e 53 20 69 73 	movabs $0x6e7520736920534e,%rdx
  402a33:	20 75 6e 
  402a36:	48 89 45 00          	mov    %rax,0x0(%rbp)
  402a3a:	48 89 55 08          	mov    %rdx,0x8(%rbp)
  402a3e:	48 b8 61 62 6c 65 20 	movabs $0x206f7420656c6261,%rax
  402a45:	74 6f 20 
  402a48:	48 ba 72 65 73 6f 6c 	movabs $0x2065766c6f736572,%rdx
  402a4f:	76 65 20 
  402a52:	48 89 45 10          	mov    %rax,0x10(%rbp)
  402a56:	48 89 55 18          	mov    %rdx,0x18(%rbp)
  402a5a:	48 b8 73 65 72 76 65 	movabs $0x6120726576726573,%rax
  402a61:	72 20 61 
  402a64:	48 89 45 20          	mov    %rax,0x20(%rbp)
  402a68:	c7 45 28 64 64 72 65 	movl   $0x65726464,0x28(%rbp)
  402a6f:	66 c7 45 2c 73 73    	movw   $0x7373,0x2c(%rbp)
  402a75:	c6 45 2e 00          	movb   $0x0,0x2e(%rbp)
  402a79:	89 df                	mov    %ebx,%edi
  402a7b:	e8 10 e2 ff ff       	callq  400c90 <close@plt>
  402a80:	b8 ff ff ff ff       	mov    $0xffffffff,%eax
  402a85:	e9 45 ff ff ff       	jmpq   4029cf <init_driver+0xc3>
  402a8a:	48 b8 45 72 72 6f 72 	movabs $0x55203a726f727245,%rax
  402a91:	3a 20 55 
  402a94:	48 ba 6e 61 62 6c 65 	movabs $0x6f7420656c62616e,%rdx
  402a9b:	20 74 6f 
  402a9e:	48 89 45 00          	mov    %rax,0x0(%rbp)
  402aa2:	48 89 55 08          	mov    %rdx,0x8(%rbp)
  402aa6:	48 b8 20 63 6f 6e 6e 	movabs $0x7463656e6e6f6320,%rax
  402aad:	65 63 74 
  402ab0:	48 ba 20 74 6f 20 73 	movabs $0x76726573206f7420,%rdx
  402ab7:	65 72 76 
  402aba:	48 89 45 10          	mov    %rax,0x10(%rbp)
  402abe:	48 89 55 18          	mov    %rdx,0x18(%rbp)
  402ac2:	66 c7 45 20 65 72    	movw   $0x7265,0x20(%rbp)
  402ac8:	c6 45 22 00          	movb   $0x0,0x22(%rbp)
  402acc:	89 df                	mov    %ebx,%edi
  402ace:	e8 bd e1 ff ff       	callq  400c90 <close@plt>
  402ad3:	b8 ff ff ff ff       	mov    $0xffffffff,%eax
  402ad8:	e9 f2 fe ff ff       	jmpq   4029cf <init_driver+0xc3>

0000000000402add <driver_post>:
  402add:	53                   	push   %rbx
  402ade:	4c 89 cb             	mov    %r9,%rbx
  402ae1:	45 85 c0             	test   %r8d,%r8d
  402ae4:	75 18                	jne    402afe <driver_post+0x21>
  402ae6:	48 85 ff             	test   %rdi,%rdi
  402ae9:	74 05                	je     402af0 <driver_post+0x13>
  402aeb:	80 3f 00             	cmpb   $0x0,(%rdi)
  402aee:	75 30                	jne    402b20 <driver_post+0x43>
  402af0:	66 c7 03 4f 4b       	movw   $0x4b4f,(%rbx)
  402af5:	c6 43 02 00          	movb   $0x0,0x2(%rbx)
  402af9:	44 89 c0             	mov    %r8d,%eax
  402afc:	5b                   	pop    %rbx
  402afd:	c3                   	retq   
  402afe:	48 89 ce             	mov    %rcx,%rsi
  402b01:	bf dc 3b 40 00       	mov    $0x403bdc,%edi
  402b06:	b8 00 00 00 00       	mov    $0x0,%eax
  402b0b:	e8 50 e1 ff ff       	callq  400c60 <printf@plt>
  402b10:	66 c7 03 4f 4b       	movw   $0x4b4f,(%rbx)
  402b15:	c6 43 02 00          	movb   $0x0,0x2(%rbx)
  402b19:	b8 00 00 00 00       	mov    $0x0,%eax
  402b1e:	eb dc                	jmp    402afc <driver_post+0x1f>
  402b20:	48 83 ec 08          	sub    $0x8,%rsp
  402b24:	41 51                	push   %r9
  402b26:	49 89 c9             	mov    %rcx,%r9
  402b29:	49 89 d0             	mov    %rdx,%r8
  402b2c:	48 89 f9             	mov    %rdi,%rcx
  402b2f:	48 89 f2             	mov    %rsi,%rdx
  402b32:	be ce 4f 00 00       	mov    $0x4fce,%esi
  402b37:	bf 21 37 40 00       	mov    $0x403721,%edi
  402b3c:	e8 6b f6 ff ff       	callq  4021ac <submitr>
  402b41:	48 83 c4 10          	add    $0x10,%rsp
  402b45:	eb b5                	jmp    402afc <driver_post+0x1f>

0000000000402b47 <check>:
  402b47:	89 f8                	mov    %edi,%eax
  402b49:	c1 e8 1c             	shr    $0x1c,%eax
  402b4c:	85 c0                	test   %eax,%eax
  402b4e:	74 1d                	je     402b6d <check+0x26>
  402b50:	b9 00 00 00 00       	mov    $0x0,%ecx
  402b55:	83 f9 1f             	cmp    $0x1f,%ecx
  402b58:	7f 0d                	jg     402b67 <check+0x20>
  402b5a:	89 f8                	mov    %edi,%eax
  402b5c:	d3 e8                	shr    %cl,%eax
  402b5e:	3c 0a                	cmp    $0xa,%al
  402b60:	74 11                	je     402b73 <check+0x2c>
  402b62:	83 c1 08             	add    $0x8,%ecx
  402b65:	eb ee                	jmp    402b55 <check+0xe>
  402b67:	b8 01 00 00 00       	mov    $0x1,%eax
  402b6c:	c3                   	retq   
  402b6d:	b8 00 00 00 00       	mov    $0x0,%eax
  402b72:	c3                   	retq   
  402b73:	b8 00 00 00 00       	mov    $0x0,%eax
  402b78:	c3                   	retq   

0000000000402b79 <gencookie>:
  402b79:	53                   	push   %rbx
  402b7a:	83 c7 01             	add    $0x1,%edi
  402b7d:	e8 7e e0 ff ff       	callq  400c00 <srandom@plt>
  402b82:	e8 89 e1 ff ff       	callq  400d10 <random@plt>
  402b87:	89 c3                	mov    %eax,%ebx
  402b89:	89 c7                	mov    %eax,%edi
  402b8b:	e8 b7 ff ff ff       	callq  402b47 <check>
  402b90:	85 c0                	test   %eax,%eax
  402b92:	74 ee                	je     402b82 <gencookie+0x9>
  402b94:	89 d8                	mov    %ebx,%eax
  402b96:	5b                   	pop    %rbx
  402b97:	c3                   	retq   
  402b98:	0f 1f 84 00 00 00 00 	nopl   0x0(%rax,%rax,1)
  402b9f:	00 

0000000000402ba0 <__libc_csu_init>:
  402ba0:	41 57                	push   %r15
  402ba2:	41 56                	push   %r14
  402ba4:	49 89 d7             	mov    %rdx,%r15
  402ba7:	41 55                	push   %r13
  402ba9:	41 54                	push   %r12
  402bab:	4c 8d 25 5e 22 20 00 	lea    0x20225e(%rip),%r12        # 604e10 <__frame_dummy_init_array_entry>
  402bb2:	55                   	push   %rbp
  402bb3:	48 8d 2d 5e 22 20 00 	lea    0x20225e(%rip),%rbp        # 604e18 <__init_array_end>
  402bba:	53                   	push   %rbx
  402bbb:	41 89 fd             	mov    %edi,%r13d
  402bbe:	49 89 f6             	mov    %rsi,%r14
  402bc1:	4c 29 e5             	sub    %r12,%rbp
  402bc4:	48 83 ec 08          	sub    $0x8,%rsp
  402bc8:	48 c1 fd 03          	sar    $0x3,%rbp
  402bcc:	e8 df df ff ff       	callq  400bb0 <_init>
  402bd1:	48 85 ed             	test   %rbp,%rbp
  402bd4:	74 18                	je     402bee <__libc_csu_init+0x4e>
  402bd6:	31 db                	xor    %ebx,%ebx
  402bd8:	4c 89 fa             	mov    %r15,%rdx
  402bdb:	4c 89 f6             	mov    %r14,%rsi
  402bde:	44 89 ef             	mov    %r13d,%edi
  402be1:	41 ff 14 dc          	callq  *(%r12,%rbx,8)
  402be5:	48 83 c3 01          	add    $0x1,%rbx
  402be9:	48 39 dd             	cmp    %rbx,%rbp
  402bec:	75 ea                	jne    402bd8 <__libc_csu_init+0x38>
  402bee:	48 83 c4 08          	add    $0x8,%rsp
  402bf2:	5b                   	pop    %rbx
  402bf3:	5d                   	pop    %rbp
  402bf4:	41 5c                	pop    %r12
  402bf6:	41 5d                	pop    %r13
  402bf8:	41 5e                	pop    %r14
  402bfa:	41 5f                	pop    %r15
  402bfc:	c3                   	retq   
  402bfd:	0f 1f 00             	nopl   (%rax)

0000000000402c00 <__libc_csu_fini>:
  402c00:	f3 c3                	repz retq 

Disassembly of section .fini:

0000000000402c04 <_fini>:
  402c04:	48 83 ec 08          	sub    $0x8,%rsp
  402c08:	48 83 c4 08          	add    $0x8,%rsp
  402c0c:	c3                   	retq   
